
main.elf:     формат файла elf32-littleriscv


Дизассемблирование раздела .text:

00000000 <reset_vec>:
       0:	14c0006f          	j	14c <start>
       4:	00000013          	nop

00000008 <irq_vec>:
       8:	0200a10b          	.insn	4, 0x0200a10b
       c:	0201218b          	.insn	4, 0x0201218b
      10:	f8010093          	addi	ra,sp,-128
      14:	0000410b          	.insn	4, 0x410b
      18:	0020a023          	sw	sp,0(ra)
      1c:	0001410b          	.insn	4, 0x0001410b
      20:	0020a223          	sw	sp,4(ra)
      24:	0001c10b          	.insn	4, 0x0001c10b
      28:	0020a423          	sw	sp,8(ra)
      2c:	00008113          	mv	sp,ra
      30:	0030a623          	sw	gp,12(ra)
      34:	0040a823          	sw	tp,16(ra)
      38:	0050aa23          	sw	t0,20(ra)
      3c:	0060ac23          	sw	t1,24(ra)
      40:	0070ae23          	sw	t2,28(ra)
      44:	0280a023          	sw	s0,32(ra)
      48:	0290a223          	sw	s1,36(ra)
      4c:	02a0a423          	sw	a0,40(ra)
      50:	02b0a623          	sw	a1,44(ra)
      54:	02c0a823          	sw	a2,48(ra)
      58:	02d0aa23          	sw	a3,52(ra)
      5c:	02e0ac23          	sw	a4,56(ra)
      60:	02f0ae23          	sw	a5,60(ra)
      64:	0500a023          	sw	a6,64(ra)
      68:	0510a223          	sw	a7,68(ra)
      6c:	0520a423          	sw	s2,72(ra)
      70:	0530a623          	sw	s3,76(ra)
      74:	0540a823          	sw	s4,80(ra)
      78:	0550aa23          	sw	s5,84(ra)
      7c:	0560ac23          	sw	s6,88(ra)
      80:	0570ae23          	sw	s7,92(ra)
      84:	0780a023          	sw	s8,96(ra)
      88:	0790a223          	sw	s9,100(ra)
      8c:	07a0a423          	sw	s10,104(ra)
      90:	07b0a623          	sw	s11,108(ra)
      94:	07c0a823          	sw	t3,112(ra)
      98:	07d0aa23          	sw	t4,116(ra)
      9c:	07e0ac23          	sw	t5,120(ra)
      a0:	07f0ae23          	sw	t6,124(ra)
      a4:	00008513          	mv	a0,ra
      a8:	0000c58b          	.insn	4, 0xc58b
      ac:	095000ef          	jal	940 <irq>
      b0:	00010093          	mv	ra,sp
      b4:	0000a103          	lw	sp,0(ra)
      b8:	0201200b          	.insn	4, 0x0201200b
      bc:	0040a103          	lw	sp,4(ra)
      c0:	0201208b          	.insn	4, 0x0201208b
      c4:	0080a103          	lw	sp,8(ra)
      c8:	0201210b          	.insn	4, 0x0201210b
      cc:	00c0a183          	lw	gp,12(ra)
      d0:	0100a203          	lw	tp,16(ra)
      d4:	0140a283          	lw	t0,20(ra)
      d8:	0180a303          	lw	t1,24(ra)
      dc:	01c0a383          	lw	t2,28(ra)
      e0:	0200a403          	lw	s0,32(ra)
      e4:	0240a483          	lw	s1,36(ra)
      e8:	0280a503          	lw	a0,40(ra)
      ec:	02c0a583          	lw	a1,44(ra)
      f0:	0300a603          	lw	a2,48(ra)
      f4:	0340a683          	lw	a3,52(ra)
      f8:	0380a703          	lw	a4,56(ra)
      fc:	03c0a783          	lw	a5,60(ra)
     100:	0400a803          	lw	a6,64(ra)
     104:	0440a883          	lw	a7,68(ra)
     108:	0480a903          	lw	s2,72(ra)
     10c:	04c0a983          	lw	s3,76(ra)
     110:	0500aa03          	lw	s4,80(ra)
     114:	0540aa83          	lw	s5,84(ra)
     118:	0580ab03          	lw	s6,88(ra)
     11c:	05c0ab83          	lw	s7,92(ra)
     120:	0600ac03          	lw	s8,96(ra)
     124:	0640ac83          	lw	s9,100(ra)
     128:	0680ad03          	lw	s10,104(ra)
     12c:	06c0ad83          	lw	s11,108(ra)
     130:	0700ae03          	lw	t3,112(ra)
     134:	0740ae83          	lw	t4,116(ra)
     138:	0780af03          	lw	t5,120(ra)
     13c:	07c0af83          	lw	t6,124(ra)
     140:	0000c08b          	.insn	4, 0xc08b
     144:	0001410b          	.insn	4, 0x0001410b
     148:	0400000b          	.insn	4, 0x0400000b

0000014c <start>:
     14c:	00000093          	li	ra,0
     150:	00003137          	lui	sp,0x3
     154:	80010113          	addi	sp,sp,-2048 # 2800 <_ebss+0x7a4>
     158:	00000193          	li	gp,0
     15c:	00000213          	li	tp,0
     160:	00000293          	li	t0,0
     164:	00000313          	li	t1,0
     168:	00000393          	li	t2,0
     16c:	00000413          	li	s0,0
     170:	00000493          	li	s1,0
     174:	00000513          	li	a0,0
     178:	00000593          	li	a1,0
     17c:	00000613          	li	a2,0
     180:	00000693          	li	a3,0
     184:	00000713          	li	a4,0
     188:	00000793          	li	a5,0
     18c:	00000813          	li	a6,0
     190:	00000893          	li	a7,0
     194:	00000913          	li	s2,0
     198:	00000993          	li	s3,0
     19c:	00000a13          	li	s4,0
     1a0:	00000a93          	li	s5,0
     1a4:	00000b13          	li	s6,0
     1a8:	00000b93          	li	s7,0
     1ac:	00000c13          	li	s8,0
     1b0:	00000c93          	li	s9,0
     1b4:	00000d13          	li	s10,0
     1b8:	00000d93          	li	s11,0
     1bc:	00000e13          	li	t3,0
     1c0:	00000e93          	li	t4,0
     1c4:	00000f13          	li	t5,0
     1c8:	00000f93          	li	t6,0
     1cc:	00001737          	lui	a4,0x1
     1d0:	1e470713          	addi	a4,a4,484 # 11e4 <_etext>
     1d4:	00002597          	auipc	a1,0x2
     1d8:	e2c58593          	addi	a1,a1,-468 # 2000 <greet>
     1dc:	00002617          	auipc	a2,0x2
     1e0:	e3c60613          	addi	a2,a2,-452 # 2018 <val>
     1e4:	00c5dc63          	bge	a1,a2,1fc <end_init_data>

000001e8 <loop_init_data>:
     1e8:	00072683          	lw	a3,0(a4)
     1ec:	00d5a023          	sw	a3,0(a1)
     1f0:	00470713          	addi	a4,a4,4
     1f4:	00458593          	addi	a1,a1,4
     1f8:	fec5c8e3          	blt	a1,a2,1e8 <loop_init_data>

000001fc <end_init_data>:
     1fc:	00002517          	auipc	a0,0x2
     200:	e1c50513          	addi	a0,a0,-484 # 2018 <val>
     204:	00002597          	auipc	a1,0x2
     208:	e5858593          	addi	a1,a1,-424 # 205c <_ebss>
     20c:	00b55863          	bge	a0,a1,21c <end_init_bss>

00000210 <loop_init_bss>:
     210:	00052023          	sw	zero,0(a0)
     214:	00450513          	addi	a0,a0,4
     218:	feb54ce3          	blt	a0,a1,210 <loop_init_bss>

0000021c <end_init_bss>:
     21c:	4ac000ef          	jal	6c8 <main>

00000220 <loop>:
     220:	0000006f          	j	220 <loop>

00000224 <update_rgb>:
     224:	020037b7          	lui	a5,0x2003
     228:	00078793          	mv	a5,a5
     22c:	00a78023          	sb	a0,0(a5) # 2003000 <_ebss+0x2000fa4>
     230:	00008067          	ret

00000234 <delay_1s>:
     234:	fe010113          	addi	sp,sp,-32
     238:	00812e23          	sw	s0,28(sp)
     23c:	02010413          	addi	s0,sp,32
     240:	0054c7b7          	lui	a5,0x54c
     244:	56378793          	addi	a5,a5,1379 # 54c563 <_ebss+0x54a507>

00000248 <dis_loop>:
     248:	fff78793          	addi	a5,a5,-1
     24c:	fe079ee3          	bnez	a5,248 <dis_loop>
     250:	01c12403          	lw	s0,28(sp)
     254:	02010113          	addi	sp,sp,32
     258:	00008067          	ret

0000025c <irq_20_handler>:
     25c:	ff010113          	addi	sp,sp,-16
     260:	00112623          	sw	ra,12(sp)
     264:	00812423          	sw	s0,8(sp)
     268:	01010413          	addi	s0,sp,16
     26c:	020057b7          	lui	a5,0x2005
     270:	0007a783          	lw	a5,0(a5) # 2005000 <_ebss+0x2002fa4>
     274:	00400713          	li	a4,4
     278:	04e78063          	beq	a5,a4,2b8 <irq_20_handler+0x5c>
     27c:	00400713          	li	a4,4
     280:	04f76463          	bltu	a4,a5,2c8 <irq_20_handler+0x6c>
     284:	00100713          	li	a4,1
     288:	00e78863          	beq	a5,a4,298 <irq_20_handler+0x3c>
     28c:	00200713          	li	a4,2
     290:	00e78c63          	beq	a5,a4,2a8 <irq_20_handler+0x4c>
     294:	0340006f          	j	2c8 <irq_20_handler+0x6c>
     298:	000017b7          	lui	a5,0x1
     29c:	18478513          	addi	a0,a5,388 # 1184 <calculate_delay+0x38>
     2a0:	784000ef          	jal	a24 <print_str>
     2a4:	0280006f          	j	2cc <irq_20_handler+0x70>
     2a8:	000017b7          	lui	a5,0x1
     2ac:	18878513          	addi	a0,a5,392 # 1188 <calculate_delay+0x3c>
     2b0:	774000ef          	jal	a24 <print_str>
     2b4:	0180006f          	j	2cc <irq_20_handler+0x70>
     2b8:	000017b7          	lui	a5,0x1
     2bc:	18c78513          	addi	a0,a5,396 # 118c <calculate_delay+0x40>
     2c0:	764000ef          	jal	a24 <print_str>
     2c4:	0080006f          	j	2cc <irq_20_handler+0x70>
     2c8:	00000013          	nop
     2cc:	020057b7          	lui	a5,0x2005
     2d0:	0007a023          	sw	zero,0(a5) # 2005000 <_ebss+0x2002fa4>
     2d4:	00000013          	nop
     2d8:	00c12083          	lw	ra,12(sp)
     2dc:	00812403          	lw	s0,8(sp)
     2e0:	01010113          	addi	sp,sp,16
     2e4:	00008067          	ret

000002e8 <menu>:
     2e8:	ff010113          	addi	sp,sp,-16
     2ec:	00112623          	sw	ra,12(sp)
     2f0:	00812423          	sw	s0,8(sp)
     2f4:	01010413          	addi	s0,sp,16
     2f8:	000027b7          	lui	a5,0x2
     2fc:	00078513          	mv	a0,a5
     300:	724000ef          	jal	a24 <print_str>
     304:	00000013          	nop
     308:	00c12083          	lw	ra,12(sp)
     30c:	00812403          	lw	s0,8(sp)
     310:	01010113          	addi	sp,sp,16
     314:	00008067          	ret

00000318 <synchronize>:
     318:	fe010113          	addi	sp,sp,-32
     31c:	00112e23          	sw	ra,28(sp)
     320:	00812c23          	sw	s0,24(sp)
     324:	02010413          	addi	s0,sp,32
     328:	030007b7          	lui	a5,0x3000
     32c:	04078793          	addi	a5,a5,64 # 3000040 <_ebss+0x2ffdfe4>
     330:	00100713          	li	a4,1
     334:	00e7a023          	sw	a4,0(a5)
     338:	030007b7          	lui	a5,0x3000
     33c:	04078793          	addi	a5,a5,64 # 3000040 <_ebss+0x2ffdfe4>
     340:	0007a023          	sw	zero,0(a5)
     344:	030007b7          	lui	a5,0x3000
     348:	05c78793          	addi	a5,a5,92 # 300005c <_ebss+0x2ffe000>
     34c:	0007a783          	lw	a5,0(a5)
     350:	fef42623          	sw	a5,-20(s0)
     354:	fec42783          	lw	a5,-20(s0)
     358:	01c7d793          	srli	a5,a5,0x1c
     35c:	fef405a3          	sb	a5,-21(s0)
     360:	fec42783          	lw	a5,-20(s0)
     364:	01079713          	slli	a4,a5,0x10
     368:	01075713          	srli	a4,a4,0x10
     36c:	000027b7          	lui	a5,0x2
     370:	00e79f23          	sh	a4,30(a5) # 201e <seq_id>
     374:	feb44783          	lbu	a5,-21(s0)
     378:	32079e63          	bnez	a5,6b4 <synchronize+0x39c>
     37c:	000027b7          	lui	a5,0x2
     380:	02c78513          	addi	a0,a5,44 # 202c <ts2>
     384:	339000ef          	jal	ebc <get_tsed_time_rx>
     388:	000027b7          	lui	a5,0x2
     38c:	00800713          	li	a4,8
     390:	02e78123          	sb	a4,34(a5) # 2022 <step>
     394:	000027b7          	lui	a5,0x2
     398:	01e7d703          	lhu	a4,30(a5) # 201e <seq_id>
     39c:	000027b7          	lui	a5,0x2
     3a0:	02e79023          	sh	a4,32(a5) # 2020 <sync_seq_id>
     3a4:	2440006f          	j	5e8 <synchronize+0x2d0>
     3a8:	000027b7          	lui	a5,0x2
     3ac:	0227c783          	lbu	a5,34(a5) # 2022 <step>
     3b0:	00900713          	li	a4,9
     3b4:	18e78663          	beq	a5,a4,540 <synchronize+0x228>
     3b8:	00900713          	li	a4,9
     3bc:	22f74463          	blt	a4,a5,5e4 <synchronize+0x2cc>
     3c0:	00100713          	li	a4,1
     3c4:	0ce78863          	beq	a5,a4,494 <synchronize+0x17c>
     3c8:	00800713          	li	a4,8
     3cc:	20e79c63          	bne	a5,a4,5e4 <synchronize+0x2cc>
     3d0:	030007b7          	lui	a5,0x3000
     3d4:	04478793          	addi	a5,a5,68 # 3000044 <_ebss+0x2ffdfe8>
     3d8:	0007a783          	lw	a5,0(a5)
     3dc:	0017f793          	andi	a5,a5,1
     3e0:	20078463          	beqz	a5,5e8 <synchronize+0x2d0>
     3e4:	030007b7          	lui	a5,0x3000
     3e8:	04078793          	addi	a5,a5,64 # 3000040 <_ebss+0x2ffdfe4>
     3ec:	00100713          	li	a4,1
     3f0:	00e7a023          	sw	a4,0(a5)
     3f4:	030007b7          	lui	a5,0x3000
     3f8:	04078793          	addi	a5,a5,64 # 3000040 <_ebss+0x2ffdfe4>
     3fc:	0007a023          	sw	zero,0(a5)
     400:	030007b7          	lui	a5,0x3000
     404:	05c78793          	addi	a5,a5,92 # 300005c <_ebss+0x2ffe000>
     408:	0007a783          	lw	a5,0(a5)
     40c:	fef42623          	sw	a5,-20(s0)
     410:	fec42783          	lw	a5,-20(s0)
     414:	01c7d793          	srli	a5,a5,0x1c
     418:	fef405a3          	sb	a5,-21(s0)
     41c:	fec42783          	lw	a5,-20(s0)
     420:	01079713          	slli	a4,a5,0x10
     424:	01075713          	srli	a4,a4,0x10
     428:	000027b7          	lui	a5,0x2
     42c:	00e79f23          	sh	a4,30(a5) # 201e <seq_id>
     430:	feb44703          	lbu	a4,-21(s0)
     434:	00800793          	li	a5,8
     438:	00f71c63          	bne	a4,a5,450 <synchronize+0x138>
     43c:	000027b7          	lui	a5,0x2
     440:	01e7d703          	lhu	a4,30(a5) # 201e <seq_id>
     444:	000027b7          	lui	a5,0x2
     448:	0207d783          	lhu	a5,32(a5) # 2020 <sync_seq_id>
     44c:	00f70863          	beq	a4,a5,45c <synchronize+0x144>
     450:	000027b7          	lui	a5,0x2
     454:	02078123          	sb	zero,34(a5) # 2022 <step>
     458:	2600006f          	j	6b8 <synchronize+0x3a0>
     45c:	000027b7          	lui	a5,0x2
     460:	02478513          	addi	a0,a5,36 # 2024 <ts1>
     464:	309000ef          	jal	f6c <get_time_msg>
     468:	000027b7          	lui	a5,0x2
     46c:	00100713          	li	a4,1
     470:	02e78123          	sb	a4,34(a5) # 2022 <step>
     474:	000027b7          	lui	a5,0x2
     478:	02478613          	addi	a2,a5,36 # 2024 <ts1>
     47c:	000027b7          	lui	a5,0x2
     480:	02c78593          	addi	a1,a5,44 # 202c <ts2>
     484:	000027b7          	lui	a5,0x2
     488:	02c78513          	addi	a0,a5,44 # 202c <ts2>
     48c:	069000ef          	jal	cf4 <subTime>
     490:	1580006f          	j	5e8 <synchronize+0x2d0>
     494:	030007b7          	lui	a5,0x3000
     498:	00100713          	li	a4,1
     49c:	00e7a023          	sw	a4,0(a5) # 3000000 <_ebss+0x2ffdfa4>
     4a0:	000027b7          	lui	a5,0x2
     4a4:	0207d783          	lhu	a5,32(a5) # 2020 <sync_seq_id>
     4a8:	00078713          	mv	a4,a5
     4ac:	100007b7          	lui	a5,0x10000
     4b0:	00f76733          	or	a4,a4,a5
     4b4:	030007b7          	lui	a5,0x3000
     4b8:	10478793          	addi	a5,a5,260 # 3000104 <_ebss+0x2ffe0a8>
     4bc:	00e7a023          	sw	a4,0(a5)
     4c0:	030007b7          	lui	a5,0x3000
     4c4:	01478713          	addi	a4,a5,20 # 3000014 <_ebss+0x2ffdfb8>
     4c8:	030007b7          	lui	a5,0x3000
     4cc:	10c78793          	addi	a5,a5,268 # 300010c <_ebss+0x2ffe0b0>
     4d0:	00072703          	lw	a4,0(a4)
     4d4:	00e7a023          	sw	a4,0(a5)
     4d8:	030007b7          	lui	a5,0x3000
     4dc:	01878713          	addi	a4,a5,24 # 3000018 <_ebss+0x2ffdfbc>
     4e0:	030007b7          	lui	a5,0x3000
     4e4:	11078793          	addi	a5,a5,272 # 3000110 <_ebss+0x2ffe0b4>
     4e8:	00072703          	lw	a4,0(a4)
     4ec:	00e7a023          	sw	a4,0(a5)
     4f0:	030007b7          	lui	a5,0x3000
     4f4:	10078793          	addi	a5,a5,256 # 3000100 <_ebss+0x2ffe0a4>
     4f8:	00100713          	li	a4,1
     4fc:	00e7a023          	sw	a4,0(a5)
     500:	030007b7          	lui	a5,0x3000
     504:	06078793          	addi	a5,a5,96 # 3000060 <_ebss+0x2ffe004>
     508:	00100713          	li	a4,1
     50c:	00e7a023          	sw	a4,0(a5)
     510:	030007b7          	lui	a5,0x3000
     514:	06078793          	addi	a5,a5,96 # 3000060 <_ebss+0x2ffe004>
     518:	0007a023          	sw	zero,0(a5)
     51c:	000027b7          	lui	a5,0x2
     520:	03478513          	addi	a0,a5,52 # 2034 <ts3>
     524:	1f1000ef          	jal	f14 <get_tsed_time_tx>
     528:	000027b7          	lui	a5,0x2
     52c:	00900713          	li	a4,9
     530:	02e78123          	sb	a4,34(a5) # 2022 <step>
     534:	030007b7          	lui	a5,0x3000
     538:	0007a023          	sw	zero,0(a5) # 3000000 <_ebss+0x2ffdfa4>
     53c:	0ac0006f          	j	5e8 <synchronize+0x2d0>
     540:	030007b7          	lui	a5,0x3000
     544:	04478793          	addi	a5,a5,68 # 3000044 <_ebss+0x2ffdfe8>
     548:	0007a783          	lw	a5,0(a5)
     54c:	0017f793          	andi	a5,a5,1
     550:	08078c63          	beqz	a5,5e8 <synchronize+0x2d0>
     554:	030007b7          	lui	a5,0x3000
     558:	04078793          	addi	a5,a5,64 # 3000040 <_ebss+0x2ffdfe4>
     55c:	00100713          	li	a4,1
     560:	00e7a023          	sw	a4,0(a5)
     564:	030007b7          	lui	a5,0x3000
     568:	04078793          	addi	a5,a5,64 # 3000040 <_ebss+0x2ffdfe4>
     56c:	0007a023          	sw	zero,0(a5)
     570:	030007b7          	lui	a5,0x3000
     574:	05c78793          	addi	a5,a5,92 # 300005c <_ebss+0x2ffe000>
     578:	0007a783          	lw	a5,0(a5)
     57c:	fef42623          	sw	a5,-20(s0)
     580:	fec42783          	lw	a5,-20(s0)
     584:	01c7d793          	srli	a5,a5,0x1c
     588:	fef405a3          	sb	a5,-21(s0)
     58c:	fec42783          	lw	a5,-20(s0)
     590:	01079713          	slli	a4,a5,0x10
     594:	01075713          	srli	a4,a4,0x10
     598:	000027b7          	lui	a5,0x2
     59c:	00e79f23          	sh	a4,30(a5) # 201e <seq_id>
     5a0:	feb44703          	lbu	a4,-21(s0)
     5a4:	00900793          	li	a5,9
     5a8:	00f71c63          	bne	a4,a5,5c0 <synchronize+0x2a8>
     5ac:	000027b7          	lui	a5,0x2
     5b0:	01e7d703          	lhu	a4,30(a5) # 201e <seq_id>
     5b4:	000027b7          	lui	a5,0x2
     5b8:	0207d783          	lhu	a5,32(a5) # 2020 <sync_seq_id>
     5bc:	00f70863          	beq	a4,a5,5cc <synchronize+0x2b4>
     5c0:	000027b7          	lui	a5,0x2
     5c4:	02078123          	sb	zero,34(a5) # 2022 <step>
     5c8:	0f00006f          	j	6b8 <synchronize+0x3a0>
     5cc:	000027b7          	lui	a5,0x2
     5d0:	03c78513          	addi	a0,a5,60 # 203c <ts4>
     5d4:	199000ef          	jal	f6c <get_time_msg>
     5d8:	000027b7          	lui	a5,0x2
     5dc:	02078123          	sb	zero,34(a5) # 2022 <step>
     5e0:	0080006f          	j	5e8 <synchronize+0x2d0>
     5e4:	00000013          	nop
     5e8:	000027b7          	lui	a5,0x2
     5ec:	0227c783          	lbu	a5,34(a5) # 2022 <step>
     5f0:	da079ce3          	bnez	a5,3a8 <synchronize+0x90>
     5f4:	000027b7          	lui	a5,0x2
     5f8:	03478613          	addi	a2,a5,52 # 2034 <ts3>
     5fc:	000027b7          	lui	a5,0x2
     600:	03c78593          	addi	a1,a5,60 # 203c <ts4>
     604:	000027b7          	lui	a5,0x2
     608:	03c78513          	addi	a0,a5,60 # 203c <ts4>
     60c:	6e8000ef          	jal	cf4 <subTime>
     610:	000027b7          	lui	a5,0x2
     614:	03c78613          	addi	a2,a5,60 # 203c <ts4>
     618:	000027b7          	lui	a5,0x2
     61c:	02c78593          	addi	a1,a5,44 # 202c <ts2>
     620:	000027b7          	lui	a5,0x2
     624:	04478513          	addi	a0,a5,68 # 2044 <rtt>
     628:	65c000ef          	jal	c84 <addTime>
     62c:	000027b7          	lui	a5,0x2
     630:	04478513          	addi	a0,a5,68 # 2044 <rtt>
     634:	730000ef          	jal	d64 <div2Time>
     638:	000027b7          	lui	a5,0x2
     63c:	04478613          	addi	a2,a5,68 # 2044 <rtt>
     640:	000027b7          	lui	a5,0x2
     644:	02c78593          	addi	a1,a5,44 # 202c <ts2>
     648:	000027b7          	lui	a5,0x2
     64c:	02c78513          	addi	a0,a5,44 # 202c <ts2>
     650:	6a4000ef          	jal	cf4 <subTime>
     654:	000027b7          	lui	a5,0x2
     658:	02c78613          	addi	a2,a5,44 # 202c <ts2>
     65c:	000027b7          	lui	a5,0x2
     660:	04c78593          	addi	a1,a5,76 # 204c <offset>
     664:	000027b7          	lui	a5,0x2
     668:	04c78513          	addi	a0,a5,76 # 204c <offset>
     66c:	688000ef          	jal	cf4 <subTime>
     670:	000027b7          	lui	a5,0x2
     674:	05478513          	addi	a0,a5,84 # 2054 <rtc>
     678:	14d000ef          	jal	fc4 <get_local_time>
     67c:	000027b7          	lui	a5,0x2
     680:	02c78613          	addi	a2,a5,44 # 202c <ts2>
     684:	000027b7          	lui	a5,0x2
     688:	05478593          	addi	a1,a5,84 # 2054 <rtc>
     68c:	000027b7          	lui	a5,0x2
     690:	05478513          	addi	a0,a5,84 # 2054 <rtc>
     694:	660000ef          	jal	cf4 <subTime>
     698:	000027b7          	lui	a5,0x2
     69c:	05478513          	addi	a0,a5,84 # 2054 <rtc>
     6a0:	1e1000ef          	jal	1080 <set_local_time>
     6a4:	000027b7          	lui	a5,0x2
     6a8:	05478513          	addi	a0,a5,84 # 2054 <rtc>
     6ac:	245000ef          	jal	10f0 <printTimestamp>
     6b0:	0080006f          	j	6b8 <synchronize+0x3a0>
     6b4:	00000013          	nop
     6b8:	01c12083          	lw	ra,28(sp)
     6bc:	01812403          	lw	s0,24(sp)
     6c0:	02010113          	addi	sp,sp,32
     6c4:	00008067          	ret

000006c8 <main>:
     6c8:	fe010113          	addi	sp,sp,-32
     6cc:	00112e23          	sw	ra,28(sp)
     6d0:	00812c23          	sw	s0,24(sp)
     6d4:	02010413          	addi	s0,sp,32
     6d8:	020047b7          	lui	a5,0x2004
     6dc:	00878793          	addi	a5,a5,8 # 2004008 <_ebss+0x2001fac>
     6e0:	43c00713          	li	a4,1084
     6e4:	00e7a023          	sw	a4,0(a5)
     6e8:	c01ff0ef          	jal	2e8 <menu>
     6ec:	020047b7          	lui	a5,0x2004
     6f0:	0007a783          	lw	a5,0(a5) # 2004000 <_ebss+0x2001fa4>
     6f4:	fef407a3          	sb	a5,-17(s0)
     6f8:	fef44703          	lbu	a4,-17(s0)
     6fc:	0ff00793          	li	a5,255
     700:	fef706e3          	beq	a4,a5,6ec <main+0x24>
     704:	fef44783          	lbu	a5,-17(s0)
     708:	07400713          	li	a4,116
     70c:	04e78063          	beq	a5,a4,74c <main+0x84>
     710:	07400713          	li	a4,116
     714:	0cf74463          	blt	a4,a5,7dc <main+0x114>
     718:	07300713          	li	a4,115
     71c:	0ae78263          	beq	a5,a4,7c0 <main+0xf8>
     720:	07300713          	li	a4,115
     724:	0af74c63          	blt	a4,a5,7dc <main+0x114>
     728:	06900713          	li	a4,105
     72c:	08e78663          	beq	a5,a4,7b8 <main+0xf0>
     730:	06900713          	li	a4,105
     734:	0af74463          	blt	a4,a5,7dc <main+0x114>
     738:	02000713          	li	a4,32
     73c:	06e78a63          	beq	a5,a4,7b0 <main+0xe8>
     740:	06100713          	li	a4,97
     744:	06e78663          	beq	a5,a4,7b0 <main+0xe8>
     748:	0940006f          	j	7dc <main+0x114>
     74c:	000027b7          	lui	a5,0x2
     750:	01c7c783          	lbu	a5,28(a5) # 201c <timer_enabled>
     754:	00078e63          	beqz	a5,770 <main+0xa8>
     758:	000017b7          	lui	a5,0x1
     75c:	19078513          	addi	a0,a5,400 # 1190 <calculate_delay+0x44>
     760:	2c4000ef          	jal	a24 <print_str>
     764:	00000513          	li	a0,0
     768:	0dc000ef          	jal	844 <irq_mask_one_bit>
     76c:	0240006f          	j	790 <main+0xc8>
     770:	000017b7          	lui	a5,0x1
     774:	1a878513          	addi	a0,a5,424 # 11a8 <calculate_delay+0x5c>
     778:	2ac000ef          	jal	a24 <print_str>
     77c:	00000513          	li	a0,0
     780:	120000ef          	jal	8a0 <irq_unmask_one_bit>
     784:	077367b7          	lui	a5,0x7736
     788:	94078513          	addi	a0,a5,-1728 # 7735940 <_ebss+0x77338e4>
     78c:	174000ef          	jal	900 <set_timer>
     790:	000027b7          	lui	a5,0x2
     794:	01c7c783          	lbu	a5,28(a5) # 201c <timer_enabled>
     798:	0017b793          	seqz	a5,a5
     79c:	0ff7f793          	zext.b	a5,a5
     7a0:	00078713          	mv	a4,a5
     7a4:	000027b7          	lui	a5,0x2
     7a8:	00e78e23          	sb	a4,28(a5) # 201c <timer_enabled>
     7ac:	0400006f          	j	7ec <main+0x124>
     7b0:	b39ff0ef          	jal	2e8 <menu>
     7b4:	0380006f          	j	7ec <main+0x124>
     7b8:	644000ef          	jal	dfc <ptp_init>
     7bc:	0300006f          	j	7ec <main+0x124>
     7c0:	000027b7          	lui	a5,0x2
     7c4:	05478513          	addi	a0,a5,84 # 2054 <rtc>
     7c8:	7fc000ef          	jal	fc4 <get_local_time>
     7cc:	000027b7          	lui	a5,0x2
     7d0:	05478513          	addi	a0,a5,84 # 2054 <rtc>
     7d4:	11d000ef          	jal	10f0 <printTimestamp>
     7d8:	0140006f          	j	7ec <main+0x124>
     7dc:	020047b7          	lui	a5,0x2004
     7e0:	fef44703          	lbu	a4,-17(s0)
     7e4:	00e7a023          	sw	a4,0(a5) # 2004000 <_ebss+0x2001fa4>
     7e8:	00000013          	nop
     7ec:	f01ff06f          	j	6ec <main+0x24>

000007f0 <default_irq_handler>:
     7f0:	ff010113          	addi	sp,sp,-16
     7f4:	00112623          	sw	ra,12(sp)
     7f8:	00812423          	sw	s0,8(sp)
     7fc:	01010413          	addi	s0,sp,16
     800:	00000013          	nop
     804:	00c12083          	lw	ra,12(sp)
     808:	00812403          	lw	s0,8(sp)
     80c:	01010113          	addi	sp,sp,16
     810:	00008067          	ret

00000814 <mask_irq>:
     814:	fe010113          	addi	sp,sp,-32
     818:	00112e23          	sw	ra,28(sp)
     81c:	00812c23          	sw	s0,24(sp)
     820:	02010413          	addi	s0,sp,32
     824:	fea42623          	sw	a0,-20(s0)
     828:	00050713          	mv	a4,a0
     82c:	0607678b          	.insn	4, 0x0607678b
     830:	00000013          	nop
     834:	01c12083          	lw	ra,28(sp)
     838:	01812403          	lw	s0,24(sp)
     83c:	02010113          	addi	sp,sp,32
     840:	00008067          	ret

00000844 <irq_mask_one_bit>:
     844:	fe010113          	addi	sp,sp,-32
     848:	00112e23          	sw	ra,28(sp)
     84c:	00812c23          	sw	s0,24(sp)
     850:	02010413          	addi	s0,sp,32
     854:	fea42623          	sw	a0,-20(s0)
     858:	fec42783          	lw	a5,-20(s0)
     85c:	00100713          	li	a4,1
     860:	00f717b3          	sll	a5,a4,a5
     864:	00078713          	mv	a4,a5
     868:	000027b7          	lui	a5,0x2
     86c:	0147a783          	lw	a5,20(a5) # 2014 <irq_mask>
     870:	00f76733          	or	a4,a4,a5
     874:	000027b7          	lui	a5,0x2
     878:	00e7aa23          	sw	a4,20(a5) # 2014 <irq_mask>
     87c:	000027b7          	lui	a5,0x2
     880:	0147a783          	lw	a5,20(a5) # 2014 <irq_mask>
     884:	00078513          	mv	a0,a5
     888:	f8dff0ef          	jal	814 <mask_irq>
     88c:	00000013          	nop
     890:	01c12083          	lw	ra,28(sp)
     894:	01812403          	lw	s0,24(sp)
     898:	02010113          	addi	sp,sp,32
     89c:	00008067          	ret

000008a0 <irq_unmask_one_bit>:
     8a0:	fe010113          	addi	sp,sp,-32
     8a4:	00112e23          	sw	ra,28(sp)
     8a8:	00812c23          	sw	s0,24(sp)
     8ac:	02010413          	addi	s0,sp,32
     8b0:	fea42623          	sw	a0,-20(s0)
     8b4:	fec42783          	lw	a5,-20(s0)
     8b8:	00100713          	li	a4,1
     8bc:	00f717b3          	sll	a5,a4,a5
     8c0:	fff7c793          	not	a5,a5
     8c4:	00078713          	mv	a4,a5
     8c8:	000027b7          	lui	a5,0x2
     8cc:	0147a783          	lw	a5,20(a5) # 2014 <irq_mask>
     8d0:	00f77733          	and	a4,a4,a5
     8d4:	000027b7          	lui	a5,0x2
     8d8:	00e7aa23          	sw	a4,20(a5) # 2014 <irq_mask>
     8dc:	000027b7          	lui	a5,0x2
     8e0:	0147a783          	lw	a5,20(a5) # 2014 <irq_mask>
     8e4:	00078513          	mv	a0,a5
     8e8:	f2dff0ef          	jal	814 <mask_irq>
     8ec:	00000013          	nop
     8f0:	01c12083          	lw	ra,28(sp)
     8f4:	01812403          	lw	s0,24(sp)
     8f8:	02010113          	addi	sp,sp,32
     8fc:	00008067          	ret

00000900 <set_timer>:
     900:	fd010113          	addi	sp,sp,-48
     904:	02112623          	sw	ra,44(sp)
     908:	02812423          	sw	s0,40(sp)
     90c:	03010413          	addi	s0,sp,48
     910:	fca42e23          	sw	a0,-36(s0)
     914:	fe042623          	sw	zero,-20(s0)
     918:	00050713          	mv	a4,a0
     91c:	0a07078b          	.insn	4, 0x0a07078b
     920:	00078793          	mv	a5,a5
     924:	fef42623          	sw	a5,-20(s0)
     928:	fec42783          	lw	a5,-20(s0)
     92c:	00078513          	mv	a0,a5
     930:	02c12083          	lw	ra,44(sp)
     934:	02812403          	lw	s0,40(sp)
     938:	03010113          	addi	sp,sp,48
     93c:	00008067          	ret

00000940 <irq>:
     940:	fe010113          	addi	sp,sp,-32
     944:	00112e23          	sw	ra,28(sp)
     948:	00812c23          	sw	s0,24(sp)
     94c:	02010413          	addi	s0,sp,32
     950:	fea42623          	sw	a0,-20(s0)
     954:	feb42423          	sw	a1,-24(s0)
     958:	000027b7          	lui	a5,0x2
     95c:	0147a703          	lw	a4,20(a5) # 2014 <irq_mask>
     960:	fe842783          	lw	a5,-24(s0)
     964:	00f76733          	or	a4,a4,a5
     968:	000027b7          	lui	a5,0x2
     96c:	00e7aa23          	sw	a4,20(a5) # 2014 <irq_mask>
     970:	000027b7          	lui	a5,0x2
     974:	0147a783          	lw	a5,20(a5) # 2014 <irq_mask>
     978:	00078513          	mv	a0,a5
     97c:	e99ff0ef          	jal	814 <mask_irq>
     980:	fe842703          	lw	a4,-24(s0)
     984:	001007b7          	lui	a5,0x100
     988:	00f777b3          	and	a5,a4,a5
     98c:	00078463          	beqz	a5,994 <irq+0x54>
     990:	8cdff0ef          	jal	25c <irq_20_handler>
     994:	fe842703          	lw	a4,-24(s0)
     998:	002007b7          	lui	a5,0x200
     99c:	00f777b3          	and	a5,a4,a5
     9a0:	00078463          	beqz	a5,9a8 <irq+0x68>
     9a4:	e4dff0ef          	jal	7f0 <default_irq_handler>
     9a8:	fe842783          	lw	a5,-24(s0)
     9ac:	fff7c713          	not	a4,a5
     9b0:	000027b7          	lui	a5,0x2
     9b4:	0147a783          	lw	a5,20(a5) # 2014 <irq_mask>
     9b8:	00f77733          	and	a4,a4,a5
     9bc:	000027b7          	lui	a5,0x2
     9c0:	00e7aa23          	sw	a4,20(a5) # 2014 <irq_mask>
     9c4:	000027b7          	lui	a5,0x2
     9c8:	0147a783          	lw	a5,20(a5) # 2014 <irq_mask>
     9cc:	00078513          	mv	a0,a5
     9d0:	e45ff0ef          	jal	814 <mask_irq>
     9d4:	fec42783          	lw	a5,-20(s0)
     9d8:	00078513          	mv	a0,a5
     9dc:	01c12083          	lw	ra,28(sp)
     9e0:	01812403          	lw	s0,24(sp)
     9e4:	02010113          	addi	sp,sp,32
     9e8:	00008067          	ret

000009ec <print_chr>:
     9ec:	fe010113          	addi	sp,sp,-32
     9f0:	00112e23          	sw	ra,28(sp)
     9f4:	00812c23          	sw	s0,24(sp)
     9f8:	02010413          	addi	s0,sp,32
     9fc:	00050793          	mv	a5,a0
     a00:	fef407a3          	sb	a5,-17(s0)
     a04:	020047b7          	lui	a5,0x2004
     a08:	fef44703          	lbu	a4,-17(s0)
     a0c:	00e7a023          	sw	a4,0(a5) # 2004000 <_ebss+0x2001fa4>
     a10:	00000013          	nop
     a14:	01c12083          	lw	ra,28(sp)
     a18:	01812403          	lw	s0,24(sp)
     a1c:	02010113          	addi	sp,sp,32
     a20:	00008067          	ret

00000a24 <print_str>:
     a24:	fe010113          	addi	sp,sp,-32
     a28:	00112e23          	sw	ra,28(sp)
     a2c:	00812c23          	sw	s0,24(sp)
     a30:	02010413          	addi	s0,sp,32
     a34:	fea42623          	sw	a0,-20(s0)
     a38:	01c0006f          	j	a54 <print_str+0x30>
     a3c:	fec42783          	lw	a5,-20(s0)
     a40:	00178713          	addi	a4,a5,1
     a44:	fee42623          	sw	a4,-20(s0)
     a48:	0007c703          	lbu	a4,0(a5)
     a4c:	020047b7          	lui	a5,0x2004
     a50:	00e7a023          	sw	a4,0(a5) # 2004000 <_ebss+0x2001fa4>
     a54:	fec42783          	lw	a5,-20(s0)
     a58:	0007c783          	lbu	a5,0(a5)
     a5c:	fe0790e3          	bnez	a5,a3c <print_str+0x18>
     a60:	00000013          	nop
     a64:	00000013          	nop
     a68:	01c12083          	lw	ra,28(sp)
     a6c:	01812403          	lw	s0,24(sp)
     a70:	02010113          	addi	sp,sp,32
     a74:	00008067          	ret

00000a78 <print_dec>:
     a78:	fd010113          	addi	sp,sp,-48
     a7c:	02112623          	sw	ra,44(sp)
     a80:	02812423          	sw	s0,40(sp)
     a84:	03010413          	addi	s0,sp,48
     a88:	fca42e23          	sw	a0,-36(s0)
     a8c:	fe040793          	addi	a5,s0,-32
     a90:	fef42623          	sw	a5,-20(s0)
     a94:	0240006f          	j	ab8 <print_dec+0x40>
     a98:	fec42783          	lw	a5,-20(s0)
     a9c:	fff78793          	addi	a5,a5,-1
     aa0:	fef42623          	sw	a5,-20(s0)
     aa4:	fec42783          	lw	a5,-20(s0)
     aa8:	0007c783          	lbu	a5,0(a5)
     aac:	03078713          	addi	a4,a5,48
     ab0:	020047b7          	lui	a5,0x2004
     ab4:	00e7a023          	sw	a4,0(a5) # 2004000 <_ebss+0x2001fa4>
     ab8:	fe040793          	addi	a5,s0,-32
     abc:	fec42703          	lw	a4,-20(s0)
     ac0:	fcf71ce3          	bne	a4,a5,a98 <print_dec+0x20>
     ac4:	00000013          	nop
     ac8:	00000013          	nop
     acc:	02c12083          	lw	ra,44(sp)
     ad0:	02812403          	lw	s0,40(sp)
     ad4:	03010113          	addi	sp,sp,48
     ad8:	00008067          	ret

00000adc <print_hex>:
     adc:	fd010113          	addi	sp,sp,-48
     ae0:	02112623          	sw	ra,44(sp)
     ae4:	02812423          	sw	s0,40(sp)
     ae8:	03010413          	addi	s0,sp,48
     aec:	fca42e23          	sw	a0,-36(s0)
     af0:	fcb42c23          	sw	a1,-40(s0)
     af4:	fd842783          	lw	a5,-40(s0)
     af8:	fff78793          	addi	a5,a5,-1
     afc:	00279793          	slli	a5,a5,0x2
     b00:	fef42623          	sw	a5,-20(s0)
     b04:	0380006f          	j	b3c <print_hex+0x60>
     b08:	fec42783          	lw	a5,-20(s0)
     b0c:	fdc42703          	lw	a4,-36(s0)
     b10:	00f757b3          	srl	a5,a4,a5
     b14:	00f7f793          	andi	a5,a5,15
     b18:	00001737          	lui	a4,0x1
     b1c:	1c070713          	addi	a4,a4,448 # 11c0 <calculate_delay+0x74>
     b20:	00f707b3          	add	a5,a4,a5
     b24:	0007c703          	lbu	a4,0(a5)
     b28:	020047b7          	lui	a5,0x2004
     b2c:	00e7a023          	sw	a4,0(a5) # 2004000 <_ebss+0x2001fa4>
     b30:	fec42783          	lw	a5,-20(s0)
     b34:	ffc78793          	addi	a5,a5,-4
     b38:	fef42623          	sw	a5,-20(s0)
     b3c:	fec42783          	lw	a5,-20(s0)
     b40:	fc07d4e3          	bgez	a5,b08 <print_hex+0x2c>
     b44:	00000013          	nop
     b48:	00000013          	nop
     b4c:	02c12083          	lw	ra,44(sp)
     b50:	02812403          	lw	s0,40(sp)
     b54:	03010113          	addi	sp,sp,48
     b58:	00008067          	ret

00000b5c <normalize_time>:
     b5c:	fe010113          	addi	sp,sp,-32
     b60:	00112e23          	sw	ra,28(sp)
     b64:	00812c23          	sw	s0,24(sp)
     b68:	02010413          	addi	s0,sp,32
     b6c:	fea42623          	sw	a0,-20(s0)
     b70:	fec42783          	lw	a5,-20(s0)
     b74:	0007a703          	lw	a4,0(a5)
     b78:	fec42783          	lw	a5,-20(s0)
     b7c:	0047a783          	lw	a5,4(a5)
     b80:	44b836b7          	lui	a3,0x44b83
     b84:	fa168693          	addi	a3,a3,-95 # 44b82fa1 <_ebss+0x44b80f45>
     b88:	02d796b3          	mulh	a3,a5,a3
     b8c:	41c6d693          	srai	a3,a3,0x1c
     b90:	41f7d793          	srai	a5,a5,0x1f
     b94:	40f687b3          	sub	a5,a3,a5
     b98:	00f70733          	add	a4,a4,a5
     b9c:	fec42783          	lw	a5,-20(s0)
     ba0:	00e7a023          	sw	a4,0(a5)
     ba4:	fec42783          	lw	a5,-20(s0)
     ba8:	0047a703          	lw	a4,4(a5)
     bac:	44b837b7          	lui	a5,0x44b83
     bb0:	fa178793          	addi	a5,a5,-95 # 44b82fa1 <_ebss+0x44b80f45>
     bb4:	02f717b3          	mulh	a5,a4,a5
     bb8:	41c7d693          	srai	a3,a5,0x1c
     bbc:	41f75793          	srai	a5,a4,0x1f
     bc0:	40f687b3          	sub	a5,a3,a5
     bc4:	3b9ad6b7          	lui	a3,0x3b9ad
     bc8:	a0068693          	addi	a3,a3,-1536 # 3b9aca00 <_ebss+0x3b9aa9a4>
     bcc:	02d787b3          	mul	a5,a5,a3
     bd0:	40f707b3          	sub	a5,a4,a5
     bd4:	fec42703          	lw	a4,-20(s0)
     bd8:	00f72223          	sw	a5,4(a4)
     bdc:	fec42783          	lw	a5,-20(s0)
     be0:	0007a783          	lw	a5,0(a5)
     be4:	04f05263          	blez	a5,c28 <normalize_time+0xcc>
     be8:	fec42783          	lw	a5,-20(s0)
     bec:	0047a783          	lw	a5,4(a5)
     bf0:	0207dc63          	bgez	a5,c28 <normalize_time+0xcc>
     bf4:	fec42783          	lw	a5,-20(s0)
     bf8:	0007a783          	lw	a5,0(a5)
     bfc:	fff78713          	addi	a4,a5,-1
     c00:	fec42783          	lw	a5,-20(s0)
     c04:	00e7a023          	sw	a4,0(a5)
     c08:	fec42783          	lw	a5,-20(s0)
     c0c:	0047a703          	lw	a4,4(a5)
     c10:	3b9ad7b7          	lui	a5,0x3b9ad
     c14:	a0078793          	addi	a5,a5,-1536 # 3b9aca00 <_ebss+0x3b9aa9a4>
     c18:	00f70733          	add	a4,a4,a5
     c1c:	fec42783          	lw	a5,-20(s0)
     c20:	00e7a223          	sw	a4,4(a5)
     c24:	04c0006f          	j	c70 <normalize_time+0x114>
     c28:	fec42783          	lw	a5,-20(s0)
     c2c:	0007a783          	lw	a5,0(a5)
     c30:	0407d063          	bgez	a5,c70 <normalize_time+0x114>
     c34:	fec42783          	lw	a5,-20(s0)
     c38:	0047a783          	lw	a5,4(a5)
     c3c:	02f05a63          	blez	a5,c70 <normalize_time+0x114>
     c40:	fec42783          	lw	a5,-20(s0)
     c44:	0007a783          	lw	a5,0(a5)
     c48:	00178713          	addi	a4,a5,1
     c4c:	fec42783          	lw	a5,-20(s0)
     c50:	00e7a023          	sw	a4,0(a5)
     c54:	fec42783          	lw	a5,-20(s0)
     c58:	0047a703          	lw	a4,4(a5)
     c5c:	c46537b7          	lui	a5,0xc4653
     c60:	60078793          	addi	a5,a5,1536 # c4653600 <_ebss+0xc46515a4>
     c64:	00f70733          	add	a4,a4,a5
     c68:	fec42783          	lw	a5,-20(s0)
     c6c:	00e7a223          	sw	a4,4(a5)
     c70:	00000013          	nop
     c74:	01c12083          	lw	ra,28(sp)
     c78:	01812403          	lw	s0,24(sp)
     c7c:	02010113          	addi	sp,sp,32
     c80:	00008067          	ret

00000c84 <addTime>:
     c84:	fe010113          	addi	sp,sp,-32
     c88:	00112e23          	sw	ra,28(sp)
     c8c:	00812c23          	sw	s0,24(sp)
     c90:	02010413          	addi	s0,sp,32
     c94:	fea42623          	sw	a0,-20(s0)
     c98:	feb42423          	sw	a1,-24(s0)
     c9c:	fec42223          	sw	a2,-28(s0)
     ca0:	fe842783          	lw	a5,-24(s0)
     ca4:	0007a703          	lw	a4,0(a5)
     ca8:	fe442783          	lw	a5,-28(s0)
     cac:	0007a783          	lw	a5,0(a5)
     cb0:	00f70733          	add	a4,a4,a5
     cb4:	fec42783          	lw	a5,-20(s0)
     cb8:	00e7a023          	sw	a4,0(a5)
     cbc:	fe842783          	lw	a5,-24(s0)
     cc0:	0047a703          	lw	a4,4(a5)
     cc4:	fe442783          	lw	a5,-28(s0)
     cc8:	0047a783          	lw	a5,4(a5)
     ccc:	00f70733          	add	a4,a4,a5
     cd0:	fec42783          	lw	a5,-20(s0)
     cd4:	00e7a223          	sw	a4,4(a5)
     cd8:	fec42503          	lw	a0,-20(s0)
     cdc:	e81ff0ef          	jal	b5c <normalize_time>
     ce0:	00000013          	nop
     ce4:	01c12083          	lw	ra,28(sp)
     ce8:	01812403          	lw	s0,24(sp)
     cec:	02010113          	addi	sp,sp,32
     cf0:	00008067          	ret

00000cf4 <subTime>:
     cf4:	fe010113          	addi	sp,sp,-32
     cf8:	00112e23          	sw	ra,28(sp)
     cfc:	00812c23          	sw	s0,24(sp)
     d00:	02010413          	addi	s0,sp,32
     d04:	fea42623          	sw	a0,-20(s0)
     d08:	feb42423          	sw	a1,-24(s0)
     d0c:	fec42223          	sw	a2,-28(s0)
     d10:	fe842783          	lw	a5,-24(s0)
     d14:	0007a703          	lw	a4,0(a5)
     d18:	fe442783          	lw	a5,-28(s0)
     d1c:	0007a783          	lw	a5,0(a5)
     d20:	40f70733          	sub	a4,a4,a5
     d24:	fec42783          	lw	a5,-20(s0)
     d28:	00e7a023          	sw	a4,0(a5)
     d2c:	fe842783          	lw	a5,-24(s0)
     d30:	0047a703          	lw	a4,4(a5)
     d34:	fe442783          	lw	a5,-28(s0)
     d38:	0047a783          	lw	a5,4(a5)
     d3c:	40f70733          	sub	a4,a4,a5
     d40:	fec42783          	lw	a5,-20(s0)
     d44:	00e7a223          	sw	a4,4(a5)
     d48:	fec42503          	lw	a0,-20(s0)
     d4c:	e11ff0ef          	jal	b5c <normalize_time>
     d50:	00000013          	nop
     d54:	01c12083          	lw	ra,28(sp)
     d58:	01812403          	lw	s0,24(sp)
     d5c:	02010113          	addi	sp,sp,32
     d60:	00008067          	ret

00000d64 <div2Time>:
     d64:	fe010113          	addi	sp,sp,-32
     d68:	00112e23          	sw	ra,28(sp)
     d6c:	00812c23          	sw	s0,24(sp)
     d70:	02010413          	addi	s0,sp,32
     d74:	fea42623          	sw	a0,-20(s0)
     d78:	fec42783          	lw	a5,-20(s0)
     d7c:	0047a683          	lw	a3,4(a5)
     d80:	fec42783          	lw	a5,-20(s0)
     d84:	0007a703          	lw	a4,0(a5)
     d88:	41f75793          	srai	a5,a4,0x1f
     d8c:	01f7d793          	srli	a5,a5,0x1f
     d90:	00f70733          	add	a4,a4,a5
     d94:	00177713          	andi	a4,a4,1
     d98:	40f707b3          	sub	a5,a4,a5
     d9c:	00078713          	mv	a4,a5
     da0:	3b9ad7b7          	lui	a5,0x3b9ad
     da4:	a0078793          	addi	a5,a5,-1536 # 3b9aca00 <_ebss+0x3b9aa9a4>
     da8:	02f707b3          	mul	a5,a4,a5
     dac:	00f68733          	add	a4,a3,a5
     db0:	fec42783          	lw	a5,-20(s0)
     db4:	00e7a223          	sw	a4,4(a5)
     db8:	fec42783          	lw	a5,-20(s0)
     dbc:	0007a783          	lw	a5,0(a5)
     dc0:	4017d713          	srai	a4,a5,0x1
     dc4:	fec42783          	lw	a5,-20(s0)
     dc8:	00e7a023          	sw	a4,0(a5)
     dcc:	fec42783          	lw	a5,-20(s0)
     dd0:	0047a783          	lw	a5,4(a5)
     dd4:	4017d713          	srai	a4,a5,0x1
     dd8:	fec42783          	lw	a5,-20(s0)
     ddc:	00e7a223          	sw	a4,4(a5)
     de0:	fec42503          	lw	a0,-20(s0)
     de4:	d79ff0ef          	jal	b5c <normalize_time>
     de8:	00000013          	nop
     dec:	01c12083          	lw	ra,28(sp)
     df0:	01812403          	lw	s0,24(sp)
     df4:	02010113          	addi	sp,sp,32
     df8:	00008067          	ret

00000dfc <ptp_init>:
     dfc:	ff010113          	addi	sp,sp,-16
     e00:	00112623          	sw	ra,12(sp)
     e04:	00812423          	sw	s0,8(sp)
     e08:	01010413          	addi	s0,sp,16
     e0c:	030007b7          	lui	a5,0x3000
     e10:	02078793          	addi	a5,a5,32 # 3000020 <_ebss+0x2ffdfc4>
     e14:	00800713          	li	a4,8
     e18:	00e7a023          	sw	a4,0(a5)
     e1c:	030007b7          	lui	a5,0x3000
     e20:	02478793          	addi	a5,a5,36 # 3000024 <_ebss+0x2ffdfc8>
     e24:	0007a023          	sw	zero,0(a5)
     e28:	030007b7          	lui	a5,0x3000
     e2c:	0007a023          	sw	zero,0(a5) # 3000000 <_ebss+0x2ffdfa4>
     e30:	030007b7          	lui	a5,0x3000
     e34:	00400713          	li	a4,4
     e38:	00e7a023          	sw	a4,0(a5) # 3000000 <_ebss+0x2ffdfa4>
     e3c:	030007b7          	lui	a5,0x3000
     e40:	0007a023          	sw	zero,0(a5) # 3000000 <_ebss+0x2ffdfa4>
     e44:	000017b7          	lui	a5,0x1
     e48:	1d478513          	addi	a0,a5,468 # 11d4 <calculate_delay+0x88>
     e4c:	bd9ff0ef          	jal	a24 <print_str>
     e50:	030007b7          	lui	a5,0x3000
     e54:	04478793          	addi	a5,a5,68 # 3000044 <_ebss+0x2ffdfe8>
     e58:	ff000737          	lui	a4,0xff000
     e5c:	00e7a023          	sw	a4,0(a5)
     e60:	030007b7          	lui	a5,0x3000
     e64:	06478793          	addi	a5,a5,100 # 3000064 <_ebss+0x2ffe008>
     e68:	ff000737          	lui	a4,0xff000
     e6c:	00e7a023          	sw	a4,0(a5)
     e70:	030007b7          	lui	a5,0x3000
     e74:	04078793          	addi	a5,a5,64 # 3000040 <_ebss+0x2ffdfe4>
     e78:	0007a023          	sw	zero,0(a5)
     e7c:	030007b7          	lui	a5,0x3000
     e80:	04078793          	addi	a5,a5,64 # 3000040 <_ebss+0x2ffdfe4>
     e84:	00200713          	li	a4,2
     e88:	00e7a023          	sw	a4,0(a5)
     e8c:	030007b7          	lui	a5,0x3000
     e90:	06078793          	addi	a5,a5,96 # 3000060 <_ebss+0x2ffe004>
     e94:	0007a023          	sw	zero,0(a5)
     e98:	030007b7          	lui	a5,0x3000
     e9c:	06078793          	addi	a5,a5,96 # 3000060 <_ebss+0x2ffe004>
     ea0:	00200713          	li	a4,2
     ea4:	00e7a023          	sw	a4,0(a5)
     ea8:	00000013          	nop
     eac:	00c12083          	lw	ra,12(sp)
     eb0:	00812403          	lw	s0,8(sp)
     eb4:	01010113          	addi	sp,sp,16
     eb8:	00008067          	ret

00000ebc <get_tsed_time_rx>:
     ebc:	fe010113          	addi	sp,sp,-32
     ec0:	00112e23          	sw	ra,28(sp)
     ec4:	00812c23          	sw	s0,24(sp)
     ec8:	02010413          	addi	s0,sp,32
     ecc:	fea42623          	sw	a0,-20(s0)
     ed0:	030007b7          	lui	a5,0x3000
     ed4:	05478793          	addi	a5,a5,84 # 3000054 <_ebss+0x2ffdff8>
     ed8:	0007a783          	lw	a5,0(a5)
     edc:	00078713          	mv	a4,a5
     ee0:	fec42783          	lw	a5,-20(s0)
     ee4:	00e7a023          	sw	a4,0(a5)
     ee8:	030007b7          	lui	a5,0x3000
     eec:	05878793          	addi	a5,a5,88 # 3000058 <_ebss+0x2ffdffc>
     ef0:	0007a783          	lw	a5,0(a5)
     ef4:	00078713          	mv	a4,a5
     ef8:	fec42783          	lw	a5,-20(s0)
     efc:	00e7a223          	sw	a4,4(a5)
     f00:	00000013          	nop
     f04:	01c12083          	lw	ra,28(sp)
     f08:	01812403          	lw	s0,24(sp)
     f0c:	02010113          	addi	sp,sp,32
     f10:	00008067          	ret

00000f14 <get_tsed_time_tx>:
     f14:	fe010113          	addi	sp,sp,-32
     f18:	00112e23          	sw	ra,28(sp)
     f1c:	00812c23          	sw	s0,24(sp)
     f20:	02010413          	addi	s0,sp,32
     f24:	fea42623          	sw	a0,-20(s0)
     f28:	030007b7          	lui	a5,0x3000
     f2c:	07478793          	addi	a5,a5,116 # 3000074 <_ebss+0x2ffe018>
     f30:	0007a783          	lw	a5,0(a5)
     f34:	00078713          	mv	a4,a5
     f38:	fec42783          	lw	a5,-20(s0)
     f3c:	00e7a023          	sw	a4,0(a5)
     f40:	030007b7          	lui	a5,0x3000
     f44:	07878793          	addi	a5,a5,120 # 3000078 <_ebss+0x2ffe01c>
     f48:	0007a783          	lw	a5,0(a5)
     f4c:	00078713          	mv	a4,a5
     f50:	fec42783          	lw	a5,-20(s0)
     f54:	00e7a223          	sw	a4,4(a5)
     f58:	00000013          	nop
     f5c:	01c12083          	lw	ra,28(sp)
     f60:	01812403          	lw	s0,24(sp)
     f64:	02010113          	addi	sp,sp,32
     f68:	00008067          	ret

00000f6c <get_time_msg>:
     f6c:	fe010113          	addi	sp,sp,-32
     f70:	00112e23          	sw	ra,28(sp)
     f74:	00812c23          	sw	s0,24(sp)
     f78:	02010413          	addi	s0,sp,32
     f7c:	fea42623          	sw	a0,-20(s0)
     f80:	030007b7          	lui	a5,0x3000
     f84:	08478793          	addi	a5,a5,132 # 3000084 <_ebss+0x2ffe028>
     f88:	0007a783          	lw	a5,0(a5)
     f8c:	00078713          	mv	a4,a5
     f90:	fec42783          	lw	a5,-20(s0)
     f94:	00e7a023          	sw	a4,0(a5)
     f98:	030007b7          	lui	a5,0x3000
     f9c:	08878793          	addi	a5,a5,136 # 3000088 <_ebss+0x2ffe02c>
     fa0:	0007a783          	lw	a5,0(a5)
     fa4:	00078713          	mv	a4,a5
     fa8:	fec42783          	lw	a5,-20(s0)
     fac:	00e7a223          	sw	a4,4(a5)
     fb0:	00000013          	nop
     fb4:	01c12083          	lw	ra,28(sp)
     fb8:	01812403          	lw	s0,24(sp)
     fbc:	02010113          	addi	sp,sp,32
     fc0:	00008067          	ret

00000fc4 <get_local_time>:
     fc4:	fe010113          	addi	sp,sp,-32
     fc8:	00112e23          	sw	ra,28(sp)
     fcc:	00812c23          	sw	s0,24(sp)
     fd0:	02010413          	addi	s0,sp,32
     fd4:	fea42623          	sw	a0,-20(s0)
     fd8:	030007b7          	lui	a5,0x3000
     fdc:	00100713          	li	a4,1
     fe0:	00e7a023          	sw	a4,0(a5) # 3000000 <_ebss+0x2ffdfa4>
     fe4:	030007b7          	lui	a5,0x3000
     fe8:	01478793          	addi	a5,a5,20 # 3000014 <_ebss+0x2ffdfb8>
     fec:	0007a783          	lw	a5,0(a5)
     ff0:	00078713          	mv	a4,a5
     ff4:	fec42783          	lw	a5,-20(s0)
     ff8:	00e7a023          	sw	a4,0(a5)
     ffc:	030007b7          	lui	a5,0x3000
    1000:	01878793          	addi	a5,a5,24 # 3000018 <_ebss+0x2ffdfbc>
    1004:	0007a783          	lw	a5,0(a5)
    1008:	00078713          	mv	a4,a5
    100c:	fec42783          	lw	a5,-20(s0)
    1010:	00e7a223          	sw	a4,4(a5)
    1014:	030007b7          	lui	a5,0x3000
    1018:	0007a023          	sw	zero,0(a5) # 3000000 <_ebss+0x2ffdfa4>
    101c:	00000013          	nop
    1020:	01c12083          	lw	ra,28(sp)
    1024:	01812403          	lw	s0,24(sp)
    1028:	02010113          	addi	sp,sp,32
    102c:	00008067          	ret

00001030 <set_offset>:
    1030:	fe010113          	addi	sp,sp,-32
    1034:	00112e23          	sw	ra,28(sp)
    1038:	00812c23          	sw	s0,24(sp)
    103c:	02010413          	addi	s0,sp,32
    1040:	fea42623          	sw	a0,-20(s0)
    1044:	fec42783          	lw	a5,-20(s0)
    1048:	0047a783          	lw	a5,4(a5)
    104c:	40f00733          	neg	a4,a5
    1050:	030007b7          	lui	a5,0x3000
    1054:	02c78793          	addi	a5,a5,44 # 300002c <_ebss+0x2ffdfd0>
    1058:	00e7a023          	sw	a4,0(a5)
    105c:	030007b7          	lui	a5,0x3000
    1060:	03078793          	addi	a5,a5,48 # 3000030 <_ebss+0x2ffdfd4>
    1064:	00100713          	li	a4,1
    1068:	00e7a023          	sw	a4,0(a5)
    106c:	00000013          	nop
    1070:	01c12083          	lw	ra,28(sp)
    1074:	01812403          	lw	s0,24(sp)
    1078:	02010113          	addi	sp,sp,32
    107c:	00008067          	ret

00001080 <set_local_time>:
    1080:	fe010113          	addi	sp,sp,-32
    1084:	00112e23          	sw	ra,28(sp)
    1088:	00812c23          	sw	s0,24(sp)
    108c:	02010413          	addi	s0,sp,32
    1090:	fea42623          	sw	a0,-20(s0)
    1094:	fec42783          	lw	a5,-20(s0)
    1098:	0007a703          	lw	a4,0(a5)
    109c:	030007b7          	lui	a5,0x3000
    10a0:	01478793          	addi	a5,a5,20 # 3000014 <_ebss+0x2ffdfb8>
    10a4:	00e7a023          	sw	a4,0(a5)
    10a8:	fec42783          	lw	a5,-20(s0)
    10ac:	0047a703          	lw	a4,4(a5)
    10b0:	030007b7          	lui	a5,0x3000
    10b4:	01878793          	addi	a5,a5,24 # 3000018 <_ebss+0x2ffdfbc>
    10b8:	00e7a023          	sw	a4,0(a5)
    10bc:	030007b7          	lui	a5,0x3000
    10c0:	00800713          	li	a4,8
    10c4:	00e7a023          	sw	a4,0(a5) # 3000000 <_ebss+0x2ffdfa4>
    10c8:	030007b7          	lui	a5,0x3000
    10cc:	00100713          	li	a4,1
    10d0:	00e7a023          	sw	a4,0(a5) # 3000000 <_ebss+0x2ffdfa4>
    10d4:	030007b7          	lui	a5,0x3000
    10d8:	0007a023          	sw	zero,0(a5) # 3000000 <_ebss+0x2ffdfa4>
    10dc:	00000013          	nop
    10e0:	01c12083          	lw	ra,28(sp)
    10e4:	01812403          	lw	s0,24(sp)
    10e8:	02010113          	addi	sp,sp,32
    10ec:	00008067          	ret

000010f0 <printTimestamp>:
    10f0:	fe010113          	addi	sp,sp,-32
    10f4:	00112e23          	sw	ra,28(sp)
    10f8:	00812c23          	sw	s0,24(sp)
    10fc:	02010413          	addi	s0,sp,32
    1100:	fea42623          	sw	a0,-20(s0)
    1104:	fec42783          	lw	a5,-20(s0)
    1108:	0007a783          	lw	a5,0(a5)
    110c:	00800593          	li	a1,8
    1110:	00078513          	mv	a0,a5
    1114:	9c9ff0ef          	jal	adc <print_hex>
    1118:	fec42783          	lw	a5,-20(s0)
    111c:	0047a783          	lw	a5,4(a5)
    1120:	00800593          	li	a1,8
    1124:	00078513          	mv	a0,a5
    1128:	9b5ff0ef          	jal	adc <print_hex>
    112c:	000017b7          	lui	a5,0x1
    1130:	1e078513          	addi	a0,a5,480 # 11e0 <calculate_delay+0x94>
    1134:	8f1ff0ef          	jal	a24 <print_str>
    1138:	00000013          	nop
    113c:	01c12083          	lw	ra,28(sp)
    1140:	01812403          	lw	s0,24(sp)
    1144:	02010113          	addi	sp,sp,32
    1148:	00008067          	ret

0000114c <calculate_delay>:
    114c:	fd010113          	addi	sp,sp,-48
    1150:	02112623          	sw	ra,44(sp)
    1154:	02812423          	sw	s0,40(sp)
    1158:	03010413          	addi	s0,sp,48
    115c:	fea42623          	sw	a0,-20(s0)
    1160:	feb42423          	sw	a1,-24(s0)
    1164:	fec42223          	sw	a2,-28(s0)
    1168:	fed42023          	sw	a3,-32(s0)
    116c:	fce42e23          	sw	a4,-36(s0)
    1170:	00000013          	nop
    1174:	02c12083          	lw	ra,44(sp)
    1178:	02812403          	lw	s0,40(sp)
    117c:	03010113          	addi	sp,sp,48
    1180:	00008067          	ret
    1184:	0030                	.insn	2, 0x0030
    1186:	0000                	.insn	2, 0x0000
    1188:	0031                	.insn	2, 0x0031
    118a:	0000                	.insn	2, 0x0000
    118c:	0032                	.insn	2, 0x0032
    118e:	0000                	.insn	2, 0x0000
    1190:	6964                	.insn	2, 0x6964
    1192:	6c626173          	csrrsi	sp,0x6c6,4
    1196:	6e69                	.insn	2, 0x6e69
    1198:	69742067          	.insn	4, 0x69742067
    119c:	656d                	.insn	2, 0x656d
    119e:	2072                	.insn	2, 0x2072
    11a0:	7269                	.insn	2, 0x7269
    11a2:	0a71                	.insn	2, 0x0a71
    11a4:	000d                	.insn	2, 0x000d
    11a6:	0000                	.insn	2, 0x0000
    11a8:	6e65                	.insn	2, 0x6e65
    11aa:	6261                	.insn	2, 0x6261
    11ac:	696c                	.insn	2, 0x696c
    11ae:	676e                	.insn	2, 0x676e
    11b0:	7420                	.insn	2, 0x7420
    11b2:	6d69                	.insn	2, 0x6d69
    11b4:	7265                	.insn	2, 0x7265
    11b6:	6920                	.insn	2, 0x6920
    11b8:	7172                	.insn	2, 0x7172
    11ba:	0d0a                	.insn	2, 0x0d0a
    11bc:	0000                	.insn	2, 0x0000
    11be:	0000                	.insn	2, 0x0000
    11c0:	3130                	.insn	2, 0x3130
    11c2:	3332                	.insn	2, 0x3332
    11c4:	3534                	.insn	2, 0x3534
    11c6:	3736                	.insn	2, 0x3736
    11c8:	3938                	.insn	2, 0x3938
    11ca:	4241                	.insn	2, 0x4241
    11cc:	46454443          	.insn	4, 0x46454443
    11d0:	0000                	.insn	2, 0x0000
    11d2:	0000                	.insn	2, 0x0000
    11d4:	5452                	.insn	2, 0x5452
    11d6:	65732043          	.insn	4, 0x65732043
    11da:	0a74                	.insn	2, 0x0a74
    11dc:	000d                	.insn	2, 0x000d
    11de:	0000                	.insn	2, 0x0000
    11e0:	0d0a                	.insn	2, 0x0d0a
	...

Дизассемблирование раздела .data:

00002000 <greet>:
    2000:	0d0a                	.insn	2, 0x0d0a
    2002:	435f 6379 6f6c      	.insn	6, 0x6f6c6379435f
    2008:	656e                	.insn	2, 0x656e
    200a:	3031                	.insn	2, 0x3031
    200c:	0a5f5847          	fmsub.d	fa6,ft10,ft5,ft1,unknown
    2010:	000d                	.insn	2, 0x000d

00002012 <update_rtt>:
    2012:	0001                	.insn	2, 0x0001

00002014 <irq_mask>:
    2014:	ffff                	.insn	2, 0xffff
    2016:	ffff                	.insn	2, 0xffff

Дизассемблирование раздела .comment:

00000000 <.comment>:
   0:	3a434347          	fmsub.d	ft6,ft6,ft4,ft7,rmm
   4:	2820                	.insn	2, 0x2820
   6:	36343067          	.insn	4, 0x36343067
   a:	3639                	.insn	2, 0x3639
   c:	6664                	.insn	2, 0x6664
   e:	3930                	.insn	2, 0x3930
  10:	2936                	.insn	2, 0x2936
  12:	3120                	.insn	2, 0x3120
  14:	2e34                	.insn	2, 0x2e34
  16:	2e32                	.insn	2, 0x2e32
  18:	0030                	.insn	2, 0x0030

Дизассемблирование раздела .riscv.attributes:

00000000 <.riscv.attributes>:
   0:	3c41                	.insn	2, 0x3c41
   2:	0000                	.insn	2, 0x0000
   4:	7200                	.insn	2, 0x7200
   6:	7369                	.insn	2, 0x7369
   8:	01007663          	bgeu	zero,a6,14 <irq_vec+0xc>
   c:	0032                	.insn	2, 0x0032
   e:	0000                	.insn	2, 0x0000
  10:	1004                	.insn	2, 0x1004
  12:	7205                	.insn	2, 0x7205
  14:	3376                	.insn	2, 0x3376
  16:	6932                	.insn	2, 0x6932
  18:	7032                	.insn	2, 0x7032
  1a:	5f31                	.insn	2, 0x5f31
  1c:	326d                	.insn	2, 0x326d
  1e:	3070                	.insn	2, 0x3070
  20:	665f 7032 5f32      	.insn	6, 0x5f327032665f
  26:	3264                	.insn	2, 0x3264
  28:	3270                	.insn	2, 0x3270
  2a:	7a5f 6369 7273      	.insn	6, 0x727363697a5f
  30:	7032                	.insn	2, 0x7032
  32:	5f30                	.insn	2, 0x5f30
  34:	6d7a                	.insn	2, 0x6d7a
  36:	756d                	.insn	2, 0x756d
  38:	316c                	.insn	2, 0x316c
  3a:	3070                	.insn	2, 0x3070
	...
