
main.elf:     формат файла elf32-littleriscv


Дизассемблирование раздела .text:

00000000 <reset_vec>:
   0:	14c0006f          	j	14c <start>
   4:	00000013          	nop

00000008 <irq_vec>:
   8:	0200a10b          	.insn	4, 0x0200a10b
   c:	0201218b          	.insn	4, 0x0201218b
  10:	f8010093          	addi	ra,sp,-128
  14:	0000410b          	.insn	4, 0x410b
  18:	0020a023          	sw	sp,0(ra)
  1c:	0001410b          	.insn	4, 0x0001410b
  20:	0020a223          	sw	sp,4(ra)
  24:	0001c10b          	.insn	4, 0x0001c10b
  28:	0020a423          	sw	sp,8(ra)
  2c:	00008113          	mv	sp,ra
  30:	0030a623          	sw	gp,12(ra)
  34:	0040a823          	sw	tp,16(ra)
  38:	0050aa23          	sw	t0,20(ra)
  3c:	0060ac23          	sw	t1,24(ra)
  40:	0070ae23          	sw	t2,28(ra)
  44:	0280a023          	sw	s0,32(ra)
  48:	0290a223          	sw	s1,36(ra)
  4c:	02a0a423          	sw	a0,40(ra)
  50:	02b0a623          	sw	a1,44(ra)
  54:	02c0a823          	sw	a2,48(ra)
  58:	02d0aa23          	sw	a3,52(ra)
  5c:	02e0ac23          	sw	a4,56(ra)
  60:	02f0ae23          	sw	a5,60(ra)
  64:	0500a023          	sw	a6,64(ra)
  68:	0510a223          	sw	a7,68(ra)
  6c:	0520a423          	sw	s2,72(ra)
  70:	0530a623          	sw	s3,76(ra)
  74:	0540a823          	sw	s4,80(ra)
  78:	0550aa23          	sw	s5,84(ra)
  7c:	0560ac23          	sw	s6,88(ra)
  80:	0570ae23          	sw	s7,92(ra)
  84:	0780a023          	sw	s8,96(ra)
  88:	0790a223          	sw	s9,100(ra)
  8c:	07a0a423          	sw	s10,104(ra)
  90:	07b0a623          	sw	s11,108(ra)
  94:	07c0a823          	sw	t3,112(ra)
  98:	07d0aa23          	sw	t4,116(ra)
  9c:	07e0ac23          	sw	t5,120(ra)
  a0:	07f0ae23          	sw	t6,124(ra)
  a4:	00008513          	mv	a0,ra
  a8:	0000c58b          	.insn	4, 0xc58b
  ac:	690000ef          	jal	73c <irq>
  b0:	00010093          	mv	ra,sp
  b4:	0000a103          	lw	sp,0(ra)
  b8:	0201200b          	.insn	4, 0x0201200b
  bc:	0040a103          	lw	sp,4(ra)
  c0:	0201208b          	.insn	4, 0x0201208b
  c4:	0080a103          	lw	sp,8(ra)
  c8:	0201210b          	.insn	4, 0x0201210b
  cc:	00c0a183          	lw	gp,12(ra)
  d0:	0100a203          	lw	tp,16(ra)
  d4:	0140a283          	lw	t0,20(ra)
  d8:	0180a303          	lw	t1,24(ra)
  dc:	01c0a383          	lw	t2,28(ra)
  e0:	0200a403          	lw	s0,32(ra)
  e4:	0240a483          	lw	s1,36(ra)
  e8:	0280a503          	lw	a0,40(ra)
  ec:	02c0a583          	lw	a1,44(ra)
  f0:	0300a603          	lw	a2,48(ra)
  f4:	0340a683          	lw	a3,52(ra)
  f8:	0380a703          	lw	a4,56(ra)
  fc:	03c0a783          	lw	a5,60(ra)
 100:	0400a803          	lw	a6,64(ra)
 104:	0440a883          	lw	a7,68(ra)
 108:	0480a903          	lw	s2,72(ra)
 10c:	04c0a983          	lw	s3,76(ra)
 110:	0500aa03          	lw	s4,80(ra)
 114:	0540aa83          	lw	s5,84(ra)
 118:	0580ab03          	lw	s6,88(ra)
 11c:	05c0ab83          	lw	s7,92(ra)
 120:	0600ac03          	lw	s8,96(ra)
 124:	0640ac83          	lw	s9,100(ra)
 128:	0680ad03          	lw	s10,104(ra)
 12c:	06c0ad83          	lw	s11,108(ra)
 130:	0700ae03          	lw	t3,112(ra)
 134:	0740ae83          	lw	t4,116(ra)
 138:	0780af03          	lw	t5,120(ra)
 13c:	07c0af83          	lw	t6,124(ra)
 140:	0000c08b          	.insn	4, 0xc08b
 144:	0001410b          	.insn	4, 0x0001410b
 148:	0400000b          	.insn	4, 0x0400000b

0000014c <start>:
 14c:	00000093          	li	ra,0
 150:	00001137          	lui	sp,0x1
 154:	40010113          	addi	sp,sp,1024 # 1400 <_ebss+0x3c4>
 158:	00000193          	li	gp,0
 15c:	00000213          	li	tp,0
 160:	00000293          	li	t0,0
 164:	00000313          	li	t1,0
 168:	00000393          	li	t2,0
 16c:	00000413          	li	s0,0
 170:	00000493          	li	s1,0
 174:	00000513          	li	a0,0
 178:	00000593          	li	a1,0
 17c:	00000613          	li	a2,0
 180:	00000693          	li	a3,0
 184:	00000713          	li	a4,0
 188:	00000793          	li	a5,0
 18c:	00000813          	li	a6,0
 190:	00000893          	li	a7,0
 194:	00000913          	li	s2,0
 198:	00000993          	li	s3,0
 19c:	00000a13          	li	s4,0
 1a0:	00000a93          	li	s5,0
 1a4:	00000b13          	li	s6,0
 1a8:	00000b93          	li	s7,0
 1ac:	00000c13          	li	s8,0
 1b0:	00000c93          	li	s9,0
 1b4:	00000d13          	li	s10,0
 1b8:	00000d93          	li	s11,0
 1bc:	00000e13          	li	t3,0
 1c0:	00000e93          	li	t4,0
 1c4:	00000f13          	li	t5,0
 1c8:	00000f93          	li	t6,0
 1cc:	00001737          	lui	a4,0x1
 1d0:	a2470713          	addi	a4,a4,-1500 # a24 <_etext>
 1d4:	00001597          	auipc	a1,0x1
 1d8:	e2c58593          	addi	a1,a1,-468 # 1000 <greet>
 1dc:	00001617          	auipc	a2,0x1
 1e0:	e5860613          	addi	a2,a2,-424 # 1034 <val>
 1e4:	00c5dc63          	bge	a1,a2,1fc <end_init_data>

000001e8 <loop_init_data>:
 1e8:	00072683          	lw	a3,0(a4)
 1ec:	00d5a023          	sw	a3,0(a1)
 1f0:	00470713          	addi	a4,a4,4
 1f4:	00458593          	addi	a1,a1,4
 1f8:	fec5c8e3          	blt	a1,a2,1e8 <loop_init_data>

000001fc <end_init_data>:
 1fc:	00001517          	auipc	a0,0x1
 200:	e3850513          	addi	a0,a0,-456 # 1034 <val>
 204:	00001597          	auipc	a1,0x1
 208:	e3858593          	addi	a1,a1,-456 # 103c <_ebss>
 20c:	00b55863          	bge	a0,a1,21c <end_init_bss>

00000210 <loop_init_bss>:
 210:	00052023          	sw	zero,0(a0)
 214:	00450513          	addi	a0,a0,4
 218:	feb54ce3          	blt	a0,a1,210 <loop_init_bss>

0000021c <end_init_bss>:
 21c:	1c8000ef          	jal	3e4 <main>

00000220 <loop>:
 220:	0000006f          	j	220 <loop>

00000224 <update_rgb>:
 224:	020037b7          	lui	a5,0x2003
 228:	00078793          	mv	a5,a5
 22c:	00a78023          	sb	a0,0(a5) # 2003000 <_ebss+0x2001fc4>
 230:	00008067          	ret

00000234 <delay_1s>:
 234:	fe010113          	addi	sp,sp,-32
 238:	00812e23          	sw	s0,28(sp)
 23c:	02010413          	addi	s0,sp,32
 240:	0054c7b7          	lui	a5,0x54c
 244:	56378793          	addi	a5,a5,1379 # 54c563 <_ebss+0x54b527>

00000248 <dis_loop>:
 248:	fff78793          	addi	a5,a5,-1
 24c:	fe079ee3          	bnez	a5,248 <dis_loop>
 250:	01c12403          	lw	s0,28(sp)
 254:	02010113          	addi	sp,sp,32
 258:	00008067          	ret

0000025c <timer_handler>:
 25c:	ff010113          	addi	sp,sp,-16
 260:	00112623          	sw	ra,12(sp)
 264:	00812423          	sw	s0,8(sp)
 268:	01010413          	addi	s0,sp,16
 26c:	000017b7          	lui	a5,0x1
 270:	0347a783          	lw	a5,52(a5) # 1034 <val>
 274:	00178693          	addi	a3,a5,1
 278:	00001737          	lui	a4,0x1
 27c:	02d72a23          	sw	a3,52(a4) # 1034 <val>
 280:	02000737          	lui	a4,0x2000
 284:	00f72023          	sw	a5,0(a4) # 2000000 <_ebss+0x1ffefc4>
 288:	000017b7          	lui	a5,0x1
 28c:	0347a703          	lw	a4,52(a5) # 1034 <val>
 290:	10000793          	li	a5,256
 294:	00f71663          	bne	a4,a5,2a0 <timer_handler+0x44>
 298:	000017b7          	lui	a5,0x1
 29c:	0207aa23          	sw	zero,52(a5) # 1034 <val>
 2a0:	077367b7          	lui	a5,0x7736
 2a4:	94078513          	addi	a0,a5,-1728 # 7735940 <_ebss+0x7734904>
 2a8:	454000ef          	jal	6fc <set_timer>
 2ac:	00000013          	nop
 2b0:	00c12083          	lw	ra,12(sp)
 2b4:	00812403          	lw	s0,8(sp)
 2b8:	01010113          	addi	sp,sp,16
 2bc:	00008067          	ret

000002c0 <irq_20_handler>:
 2c0:	ff010113          	addi	sp,sp,-16
 2c4:	00112623          	sw	ra,12(sp)
 2c8:	00812423          	sw	s0,8(sp)
 2cc:	01010413          	addi	s0,sp,16
 2d0:	020057b7          	lui	a5,0x2005
 2d4:	0007a783          	lw	a5,0(a5) # 2005000 <_ebss+0x2003fc4>
 2d8:	00400713          	li	a4,4
 2dc:	04e78063          	beq	a5,a4,31c <irq_20_handler+0x5c>
 2e0:	00400713          	li	a4,4
 2e4:	04f76463          	bltu	a4,a5,32c <irq_20_handler+0x6c>
 2e8:	00100713          	li	a4,1
 2ec:	00e78863          	beq	a5,a4,2fc <irq_20_handler+0x3c>
 2f0:	00200713          	li	a4,2
 2f4:	00e78c63          	beq	a5,a4,30c <irq_20_handler+0x4c>
 2f8:	0340006f          	j	32c <irq_20_handler+0x6c>
 2fc:	000017b7          	lui	a5,0x1
 300:	96878513          	addi	a0,a5,-1688 # 968 <print_hex+0x80>
 304:	52c000ef          	jal	830 <print_str>
 308:	0280006f          	j	330 <irq_20_handler+0x70>
 30c:	000017b7          	lui	a5,0x1
 310:	96c78513          	addi	a0,a5,-1684 # 96c <print_hex+0x84>
 314:	51c000ef          	jal	830 <print_str>
 318:	0180006f          	j	330 <irq_20_handler+0x70>
 31c:	000017b7          	lui	a5,0x1
 320:	97078513          	addi	a0,a5,-1680 # 970 <print_hex+0x88>
 324:	50c000ef          	jal	830 <print_str>
 328:	0080006f          	j	330 <irq_20_handler+0x70>
 32c:	00000013          	nop
 330:	020057b7          	lui	a5,0x2005
 334:	0007a023          	sw	zero,0(a5) # 2005000 <_ebss+0x2003fc4>
 338:	00000013          	nop
 33c:	00c12083          	lw	ra,12(sp)
 340:	00812403          	lw	s0,8(sp)
 344:	01010113          	addi	sp,sp,16
 348:	00008067          	ret

0000034c <menu>:
 34c:	ff010113          	addi	sp,sp,-16
 350:	00112623          	sw	ra,12(sp)
 354:	00812423          	sw	s0,8(sp)
 358:	01010413          	addi	s0,sp,16
 35c:	000017b7          	lui	a5,0x1
 360:	00078513          	mv	a0,a5
 364:	4cc000ef          	jal	830 <print_str>
 368:	00000013          	nop
 36c:	00c12083          	lw	ra,12(sp)
 370:	00812403          	lw	s0,8(sp)
 374:	01010113          	addi	sp,sp,16
 378:	00008067          	ret

0000037c <ptp_init>:
 37c:	ff010113          	addi	sp,sp,-16
 380:	00112623          	sw	ra,12(sp)
 384:	00812423          	sw	s0,8(sp)
 388:	01010413          	addi	s0,sp,16
 38c:	030007b7          	lui	a5,0x3000
 390:	02078793          	addi	a5,a5,32 # 3000020 <_ebss+0x2ffefe4>
 394:	00800713          	li	a4,8
 398:	00e7a023          	sw	a4,0(a5)
 39c:	030007b7          	lui	a5,0x3000
 3a0:	02478793          	addi	a5,a5,36 # 3000024 <_ebss+0x2ffefe8>
 3a4:	0007a023          	sw	zero,0(a5)
 3a8:	030007b7          	lui	a5,0x3000
 3ac:	0007a023          	sw	zero,0(a5) # 3000000 <_ebss+0x2ffefc4>
 3b0:	030007b7          	lui	a5,0x3000
 3b4:	00400713          	li	a4,4
 3b8:	00e7a023          	sw	a4,0(a5) # 3000000 <_ebss+0x2ffefc4>
 3bc:	030007b7          	lui	a5,0x3000
 3c0:	0007a023          	sw	zero,0(a5) # 3000000 <_ebss+0x2ffefc4>
 3c4:	000017b7          	lui	a5,0x1
 3c8:	97478513          	addi	a0,a5,-1676 # 974 <print_hex+0x8c>
 3cc:	464000ef          	jal	830 <print_str>
 3d0:	00000013          	nop
 3d4:	00c12083          	lw	ra,12(sp)
 3d8:	00812403          	lw	s0,8(sp)
 3dc:	01010113          	addi	sp,sp,16
 3e0:	00008067          	ret

000003e4 <main>:
 3e4:	fe010113          	addi	sp,sp,-32
 3e8:	00112e23          	sw	ra,28(sp)
 3ec:	00812c23          	sw	s0,24(sp)
 3f0:	02010413          	addi	s0,sp,32
 3f4:	020047b7          	lui	a5,0x2004
 3f8:	00878793          	addi	a5,a5,8 # 2004008 <_ebss+0x2002fcc>
 3fc:	43c00713          	li	a4,1084
 400:	00e7a023          	sw	a4,0(a5)
 404:	01400513          	li	a0,20
 408:	294000ef          	jal	69c <irq_unmask_one_bit>
 40c:	f41ff0ef          	jal	34c <menu>
 410:	030007b7          	lui	a5,0x3000
 414:	01000713          	li	a4,16
 418:	00e7a023          	sw	a4,0(a5) # 3000000 <_ebss+0x2ffefc4>
 41c:	030007b7          	lui	a5,0x3000
 420:	0007a023          	sw	zero,0(a5) # 3000000 <_ebss+0x2ffefc4>
 424:	020047b7          	lui	a5,0x2004
 428:	0007a783          	lw	a5,0(a5) # 2004000 <_ebss+0x2002fc4>
 42c:	fef407a3          	sb	a5,-17(s0)
 430:	fef44703          	lbu	a4,-17(s0)
 434:	0ff00793          	li	a5,255
 438:	fef706e3          	beq	a4,a5,424 <main+0x40>
 43c:	fef44783          	lbu	a5,-17(s0)
 440:	02000713          	li	a4,32
 444:	0ae78263          	beq	a5,a4,4e8 <main+0x104>
 448:	02000713          	li	a4,32
 44c:	14e7ce63          	blt	a5,a4,5a8 <main+0x1c4>
 450:	07400713          	li	a4,116
 454:	14f74a63          	blt	a4,a5,5a8 <main+0x1c4>
 458:	06100713          	li	a4,97
 45c:	14e7c663          	blt	a5,a4,5a8 <main+0x1c4>
 460:	f9f78793          	addi	a5,a5,-97
 464:	01300713          	li	a4,19
 468:	14f76063          	bltu	a4,a5,5a8 <main+0x1c4>
 46c:	00279713          	slli	a4,a5,0x2
 470:	000017b7          	lui	a5,0x1
 474:	9c078793          	addi	a5,a5,-1600 # 9c0 <print_hex+0xd8>
 478:	00f707b3          	add	a5,a4,a5
 47c:	0007a783          	lw	a5,0(a5)
 480:	00078067          	jr	a5
 484:	000017b7          	lui	a5,0x1
 488:	0387c783          	lbu	a5,56(a5) # 1038 <timer_enabled>
 48c:	00078e63          	beqz	a5,4a8 <main+0xc4>
 490:	000017b7          	lui	a5,0x1
 494:	98078513          	addi	a0,a5,-1664 # 980 <print_hex+0x98>
 498:	398000ef          	jal	830 <print_str>
 49c:	00000513          	li	a0,0
 4a0:	1a0000ef          	jal	640 <irq_mask_one_bit>
 4a4:	0240006f          	j	4c8 <main+0xe4>
 4a8:	000017b7          	lui	a5,0x1
 4ac:	99878513          	addi	a0,a5,-1640 # 998 <print_hex+0xb0>
 4b0:	380000ef          	jal	830 <print_str>
 4b4:	00000513          	li	a0,0
 4b8:	1e4000ef          	jal	69c <irq_unmask_one_bit>
 4bc:	077367b7          	lui	a5,0x7736
 4c0:	94078513          	addi	a0,a5,-1728 # 7735940 <_ebss+0x7734904>
 4c4:	238000ef          	jal	6fc <set_timer>
 4c8:	000017b7          	lui	a5,0x1
 4cc:	0387c783          	lbu	a5,56(a5) # 1038 <timer_enabled>
 4d0:	0017b793          	seqz	a5,a5
 4d4:	0ff7f793          	zext.b	a5,a5
 4d8:	00078713          	mv	a4,a5
 4dc:	000017b7          	lui	a5,0x1
 4e0:	02e78c23          	sb	a4,56(a5) # 1038 <timer_enabled>
 4e4:	1040006f          	j	5e8 <main+0x204>
 4e8:	e65ff0ef          	jal	34c <menu>
 4ec:	0fc0006f          	j	5e8 <main+0x204>
 4f0:	020037b7          	lui	a5,0x2003
 4f4:	00600713          	li	a4,6
 4f8:	00e7a023          	sw	a4,0(a5) # 2003000 <_ebss+0x2001fc4>
 4fc:	020037b7          	lui	a5,0x2003
 500:	00478793          	addi	a5,a5,4 # 2003004 <_ebss+0x2001fc8>
 504:	00600713          	li	a4,6
 508:	00e7a023          	sw	a4,0(a5)
 50c:	0dc0006f          	j	5e8 <main+0x204>
 510:	020037b7          	lui	a5,0x2003
 514:	00500713          	li	a4,5
 518:	00e7a023          	sw	a4,0(a5) # 2003000 <_ebss+0x2001fc4>
 51c:	020037b7          	lui	a5,0x2003
 520:	00478793          	addi	a5,a5,4 # 2003004 <_ebss+0x2001fc8>
 524:	00500713          	li	a4,5
 528:	00e7a023          	sw	a4,0(a5)
 52c:	0bc0006f          	j	5e8 <main+0x204>
 530:	020037b7          	lui	a5,0x2003
 534:	00300713          	li	a4,3
 538:	00e7a023          	sw	a4,0(a5) # 2003000 <_ebss+0x2001fc4>
 53c:	020037b7          	lui	a5,0x2003
 540:	00478793          	addi	a5,a5,4 # 2003004 <_ebss+0x2001fc8>
 544:	00300713          	li	a4,3
 548:	00e7a023          	sw	a4,0(a5)
 54c:	09c0006f          	j	5e8 <main+0x204>
 550:	020037b7          	lui	a5,0x2003
 554:	00700713          	li	a4,7
 558:	00e7a023          	sw	a4,0(a5) # 2003000 <_ebss+0x2001fc4>
 55c:	020037b7          	lui	a5,0x2003
 560:	00478793          	addi	a5,a5,4 # 2003004 <_ebss+0x2001fc8>
 564:	00700713          	li	a4,7
 568:	00e7a023          	sw	a4,0(a5)
 56c:	07c0006f          	j	5e8 <main+0x204>
 570:	000017b7          	lui	a5,0x1
 574:	9b078513          	addi	a0,a5,-1616 # 9b0 <print_hex+0xc8>
 578:	2b8000ef          	jal	830 <print_str>
 57c:	020087b7          	lui	a5,0x2008
 580:	0007a783          	lw	a5,0(a5) # 2008000 <_ebss+0x2006fc4>
 584:	00200593          	li	a1,2
 588:	00078513          	mv	a0,a5
 58c:	35c000ef          	jal	8e8 <print_hex>
 590:	000017b7          	lui	a5,0x1
 594:	9bc78513          	addi	a0,a5,-1604 # 9bc <print_hex+0xd4>
 598:	298000ef          	jal	830 <print_str>
 59c:	04c0006f          	j	5e8 <main+0x204>
 5a0:	dddff0ef          	jal	37c <ptp_init>
 5a4:	0440006f          	j	5e8 <main+0x204>
 5a8:	020047b7          	lui	a5,0x2004
 5ac:	fef44703          	lbu	a4,-17(s0)
 5b0:	00e7a023          	sw	a4,0(a5) # 2004000 <_ebss+0x2002fc4>
 5b4:	fef44703          	lbu	a4,-17(s0)
 5b8:	020027b7          	lui	a5,0x2002
 5bc:	00f77713          	andi	a4,a4,15
 5c0:	00e7a023          	sw	a4,0(a5) # 2002000 <_ebss+0x2000fc4>
 5c4:	fef44783          	lbu	a5,-17(s0)
 5c8:	0047d793          	srli	a5,a5,0x4
 5cc:	0ff7f793          	zext.b	a5,a5
 5d0:	00078713          	mv	a4,a5
 5d4:	020027b7          	lui	a5,0x2002
 5d8:	00478793          	addi	a5,a5,4 # 2002004 <_ebss+0x2000fc8>
 5dc:	00f77713          	andi	a4,a4,15
 5e0:	00e7a023          	sw	a4,0(a5)
 5e4:	00000013          	nop
 5e8:	e3dff06f          	j	424 <main+0x40>

000005ec <default_irq_handler>:
 5ec:	ff010113          	addi	sp,sp,-16
 5f0:	00112623          	sw	ra,12(sp)
 5f4:	00812423          	sw	s0,8(sp)
 5f8:	01010413          	addi	s0,sp,16
 5fc:	00000013          	nop
 600:	00c12083          	lw	ra,12(sp)
 604:	00812403          	lw	s0,8(sp)
 608:	01010113          	addi	sp,sp,16
 60c:	00008067          	ret

00000610 <mask_irq>:
 610:	fe010113          	addi	sp,sp,-32
 614:	00112e23          	sw	ra,28(sp)
 618:	00812c23          	sw	s0,24(sp)
 61c:	02010413          	addi	s0,sp,32
 620:	fea42623          	sw	a0,-20(s0)
 624:	00050713          	mv	a4,a0
 628:	0607678b          	.insn	4, 0x0607678b
 62c:	00000013          	nop
 630:	01c12083          	lw	ra,28(sp)
 634:	01812403          	lw	s0,24(sp)
 638:	02010113          	addi	sp,sp,32
 63c:	00008067          	ret

00000640 <irq_mask_one_bit>:
 640:	fe010113          	addi	sp,sp,-32
 644:	00112e23          	sw	ra,28(sp)
 648:	00812c23          	sw	s0,24(sp)
 64c:	02010413          	addi	s0,sp,32
 650:	fea42623          	sw	a0,-20(s0)
 654:	fec42783          	lw	a5,-20(s0)
 658:	00100713          	li	a4,1
 65c:	00f717b3          	sll	a5,a4,a5
 660:	00078713          	mv	a4,a5
 664:	000017b7          	lui	a5,0x1
 668:	0307a783          	lw	a5,48(a5) # 1030 <irq_mask>
 66c:	00f76733          	or	a4,a4,a5
 670:	000017b7          	lui	a5,0x1
 674:	02e7a823          	sw	a4,48(a5) # 1030 <irq_mask>
 678:	000017b7          	lui	a5,0x1
 67c:	0307a783          	lw	a5,48(a5) # 1030 <irq_mask>
 680:	00078513          	mv	a0,a5
 684:	f8dff0ef          	jal	610 <mask_irq>
 688:	00000013          	nop
 68c:	01c12083          	lw	ra,28(sp)
 690:	01812403          	lw	s0,24(sp)
 694:	02010113          	addi	sp,sp,32
 698:	00008067          	ret

0000069c <irq_unmask_one_bit>:
 69c:	fe010113          	addi	sp,sp,-32
 6a0:	00112e23          	sw	ra,28(sp)
 6a4:	00812c23          	sw	s0,24(sp)
 6a8:	02010413          	addi	s0,sp,32
 6ac:	fea42623          	sw	a0,-20(s0)
 6b0:	fec42783          	lw	a5,-20(s0)
 6b4:	00100713          	li	a4,1
 6b8:	00f717b3          	sll	a5,a4,a5
 6bc:	fff7c793          	not	a5,a5
 6c0:	00078713          	mv	a4,a5
 6c4:	000017b7          	lui	a5,0x1
 6c8:	0307a783          	lw	a5,48(a5) # 1030 <irq_mask>
 6cc:	00f77733          	and	a4,a4,a5
 6d0:	000017b7          	lui	a5,0x1
 6d4:	02e7a823          	sw	a4,48(a5) # 1030 <irq_mask>
 6d8:	000017b7          	lui	a5,0x1
 6dc:	0307a783          	lw	a5,48(a5) # 1030 <irq_mask>
 6e0:	00078513          	mv	a0,a5
 6e4:	f2dff0ef          	jal	610 <mask_irq>
 6e8:	00000013          	nop
 6ec:	01c12083          	lw	ra,28(sp)
 6f0:	01812403          	lw	s0,24(sp)
 6f4:	02010113          	addi	sp,sp,32
 6f8:	00008067          	ret

000006fc <set_timer>:
 6fc:	fd010113          	addi	sp,sp,-48
 700:	02112623          	sw	ra,44(sp)
 704:	02812423          	sw	s0,40(sp)
 708:	03010413          	addi	s0,sp,48
 70c:	fca42e23          	sw	a0,-36(s0)
 710:	fe042623          	sw	zero,-20(s0)
 714:	00050713          	mv	a4,a0
 718:	0a07078b          	.insn	4, 0x0a07078b
 71c:	00078793          	mv	a5,a5
 720:	fef42623          	sw	a5,-20(s0)
 724:	fec42783          	lw	a5,-20(s0)
 728:	00078513          	mv	a0,a5
 72c:	02c12083          	lw	ra,44(sp)
 730:	02812403          	lw	s0,40(sp)
 734:	03010113          	addi	sp,sp,48
 738:	00008067          	ret

0000073c <irq>:
 73c:	fe010113          	addi	sp,sp,-32
 740:	00112e23          	sw	ra,28(sp)
 744:	00812c23          	sw	s0,24(sp)
 748:	02010413          	addi	s0,sp,32
 74c:	fea42623          	sw	a0,-20(s0)
 750:	feb42423          	sw	a1,-24(s0)
 754:	000017b7          	lui	a5,0x1
 758:	0307a703          	lw	a4,48(a5) # 1030 <irq_mask>
 75c:	fe842783          	lw	a5,-24(s0)
 760:	00f76733          	or	a4,a4,a5
 764:	000017b7          	lui	a5,0x1
 768:	02e7a823          	sw	a4,48(a5) # 1030 <irq_mask>
 76c:	000017b7          	lui	a5,0x1
 770:	0307a783          	lw	a5,48(a5) # 1030 <irq_mask>
 774:	00078513          	mv	a0,a5
 778:	e99ff0ef          	jal	610 <mask_irq>
 77c:	fe842783          	lw	a5,-24(s0)
 780:	0017f793          	andi	a5,a5,1
 784:	00078463          	beqz	a5,78c <irq+0x50>
 788:	ad5ff0ef          	jal	25c <timer_handler>
 78c:	fe842703          	lw	a4,-24(s0)
 790:	001007b7          	lui	a5,0x100
 794:	00f777b3          	and	a5,a4,a5
 798:	00078463          	beqz	a5,7a0 <irq+0x64>
 79c:	b25ff0ef          	jal	2c0 <irq_20_handler>
 7a0:	fe842703          	lw	a4,-24(s0)
 7a4:	002007b7          	lui	a5,0x200
 7a8:	00f777b3          	and	a5,a4,a5
 7ac:	00078463          	beqz	a5,7b4 <irq+0x78>
 7b0:	e3dff0ef          	jal	5ec <default_irq_handler>
 7b4:	fe842783          	lw	a5,-24(s0)
 7b8:	fff7c713          	not	a4,a5
 7bc:	000017b7          	lui	a5,0x1
 7c0:	0307a783          	lw	a5,48(a5) # 1030 <irq_mask>
 7c4:	00f77733          	and	a4,a4,a5
 7c8:	000017b7          	lui	a5,0x1
 7cc:	02e7a823          	sw	a4,48(a5) # 1030 <irq_mask>
 7d0:	000017b7          	lui	a5,0x1
 7d4:	0307a783          	lw	a5,48(a5) # 1030 <irq_mask>
 7d8:	00078513          	mv	a0,a5
 7dc:	e35ff0ef          	jal	610 <mask_irq>
 7e0:	fec42783          	lw	a5,-20(s0)
 7e4:	00078513          	mv	a0,a5
 7e8:	01c12083          	lw	ra,28(sp)
 7ec:	01812403          	lw	s0,24(sp)
 7f0:	02010113          	addi	sp,sp,32
 7f4:	00008067          	ret

000007f8 <print_chr>:
 7f8:	fe010113          	addi	sp,sp,-32
 7fc:	00112e23          	sw	ra,28(sp)
 800:	00812c23          	sw	s0,24(sp)
 804:	02010413          	addi	s0,sp,32
 808:	00050793          	mv	a5,a0
 80c:	fef407a3          	sb	a5,-17(s0)
 810:	020047b7          	lui	a5,0x2004
 814:	fef44703          	lbu	a4,-17(s0)
 818:	00e7a023          	sw	a4,0(a5) # 2004000 <_ebss+0x2002fc4>
 81c:	00000013          	nop
 820:	01c12083          	lw	ra,28(sp)
 824:	01812403          	lw	s0,24(sp)
 828:	02010113          	addi	sp,sp,32
 82c:	00008067          	ret

00000830 <print_str>:
 830:	fe010113          	addi	sp,sp,-32
 834:	00112e23          	sw	ra,28(sp)
 838:	00812c23          	sw	s0,24(sp)
 83c:	02010413          	addi	s0,sp,32
 840:	fea42623          	sw	a0,-20(s0)
 844:	01c0006f          	j	860 <print_str+0x30>
 848:	fec42783          	lw	a5,-20(s0)
 84c:	00178713          	addi	a4,a5,1
 850:	fee42623          	sw	a4,-20(s0)
 854:	0007c703          	lbu	a4,0(a5)
 858:	020047b7          	lui	a5,0x2004
 85c:	00e7a023          	sw	a4,0(a5) # 2004000 <_ebss+0x2002fc4>
 860:	fec42783          	lw	a5,-20(s0)
 864:	0007c783          	lbu	a5,0(a5)
 868:	fe0790e3          	bnez	a5,848 <print_str+0x18>
 86c:	00000013          	nop
 870:	00000013          	nop
 874:	01c12083          	lw	ra,28(sp)
 878:	01812403          	lw	s0,24(sp)
 87c:	02010113          	addi	sp,sp,32
 880:	00008067          	ret

00000884 <print_dec>:
 884:	fd010113          	addi	sp,sp,-48
 888:	02112623          	sw	ra,44(sp)
 88c:	02812423          	sw	s0,40(sp)
 890:	03010413          	addi	s0,sp,48
 894:	fca42e23          	sw	a0,-36(s0)
 898:	fe040793          	addi	a5,s0,-32
 89c:	fef42623          	sw	a5,-20(s0)
 8a0:	0240006f          	j	8c4 <print_dec+0x40>
 8a4:	fec42783          	lw	a5,-20(s0)
 8a8:	fff78793          	addi	a5,a5,-1
 8ac:	fef42623          	sw	a5,-20(s0)
 8b0:	fec42783          	lw	a5,-20(s0)
 8b4:	0007c783          	lbu	a5,0(a5)
 8b8:	03078713          	addi	a4,a5,48
 8bc:	020047b7          	lui	a5,0x2004
 8c0:	00e7a023          	sw	a4,0(a5) # 2004000 <_ebss+0x2002fc4>
 8c4:	fe040793          	addi	a5,s0,-32
 8c8:	fec42703          	lw	a4,-20(s0)
 8cc:	fcf71ce3          	bne	a4,a5,8a4 <print_dec+0x20>
 8d0:	00000013          	nop
 8d4:	00000013          	nop
 8d8:	02c12083          	lw	ra,44(sp)
 8dc:	02812403          	lw	s0,40(sp)
 8e0:	03010113          	addi	sp,sp,48
 8e4:	00008067          	ret

000008e8 <print_hex>:
 8e8:	fd010113          	addi	sp,sp,-48
 8ec:	02112623          	sw	ra,44(sp)
 8f0:	02812423          	sw	s0,40(sp)
 8f4:	03010413          	addi	s0,sp,48
 8f8:	fca42e23          	sw	a0,-36(s0)
 8fc:	fcb42c23          	sw	a1,-40(s0)
 900:	fd842783          	lw	a5,-40(s0)
 904:	fff78793          	addi	a5,a5,-1
 908:	00279793          	slli	a5,a5,0x2
 90c:	fef42623          	sw	a5,-20(s0)
 910:	0380006f          	j	948 <print_hex+0x60>
 914:	fec42783          	lw	a5,-20(s0)
 918:	fdc42703          	lw	a4,-36(s0)
 91c:	00f757b3          	srl	a5,a4,a5
 920:	00f7f793          	andi	a5,a5,15
 924:	00001737          	lui	a4,0x1
 928:	a1070713          	addi	a4,a4,-1520 # a10 <print_hex+0x128>
 92c:	00f707b3          	add	a5,a4,a5
 930:	0007c703          	lbu	a4,0(a5)
 934:	020047b7          	lui	a5,0x2004
 938:	00e7a023          	sw	a4,0(a5) # 2004000 <_ebss+0x2002fc4>
 93c:	fec42783          	lw	a5,-20(s0)
 940:	ffc78793          	addi	a5,a5,-4
 944:	fef42623          	sw	a5,-20(s0)
 948:	fec42783          	lw	a5,-20(s0)
 94c:	fc07d4e3          	bgez	a5,914 <print_hex+0x2c>
 950:	00000013          	nop
 954:	00000013          	nop
 958:	02c12083          	lw	ra,44(sp)
 95c:	02812403          	lw	s0,40(sp)
 960:	03010113          	addi	sp,sp,48
 964:	00008067          	ret
 968:	0030                	.insn	2, 0x0030
 96a:	0000                	.insn	2, 0x0000
 96c:	0031                	.insn	2, 0x0031
 96e:	0000                	.insn	2, 0x0000
 970:	0032                	.insn	2, 0x0032
 972:	0000                	.insn	2, 0x0000
 974:	7470                	.insn	2, 0x7470
 976:	2070                	.insn	2, 0x2070
 978:	6e69                	.insn	2, 0x6e69
 97a:	7469                	.insn	2, 0x7469
 97c:	0064                	.insn	2, 0x0064
 97e:	0000                	.insn	2, 0x0000
 980:	6964                	.insn	2, 0x6964
 982:	6c626173          	csrrsi	sp,0x6c6,4
 986:	6e69                	.insn	2, 0x6e69
 988:	69742067          	.insn	4, 0x69742067
 98c:	656d                	.insn	2, 0x656d
 98e:	2072                	.insn	2, 0x2072
 990:	7269                	.insn	2, 0x7269
 992:	0a71                	.insn	2, 0x0a71
 994:	000d                	.insn	2, 0x000d
 996:	0000                	.insn	2, 0x0000
 998:	6e65                	.insn	2, 0x6e65
 99a:	6261                	.insn	2, 0x6261
 99c:	696c                	.insn	2, 0x696c
 99e:	676e                	.insn	2, 0x676e
 9a0:	7420                	.insn	2, 0x7420
 9a2:	6d69                	.insn	2, 0x6d69
 9a4:	7265                	.insn	2, 0x7265
 9a6:	6920                	.insn	2, 0x6920
 9a8:	7172                	.insn	2, 0x7172
 9aa:	0d0a                	.insn	2, 0x0d0a
 9ac:	0000                	.insn	2, 0x0000
 9ae:	0000                	.insn	2, 0x0000
 9b0:	74697773          	csrrci	a4,0x746,18
 9b4:	203a6863          	bltu	s4,gp,bc4 <_etext+0x1a0>
 9b8:	0000                	.insn	2, 0x0000
 9ba:	0000                	.insn	2, 0x0000
 9bc:	0d0a                	.insn	2, 0x0d0a
 9be:	0000                	.insn	2, 0x0000
 9c0:	04e8                	.insn	2, 0x04e8
 9c2:	0000                	.insn	2, 0x0000
 9c4:	0530                	.insn	2, 0x0530
 9c6:	0000                	.insn	2, 0x0000
 9c8:	05a8                	.insn	2, 0x05a8
 9ca:	0000                	.insn	2, 0x0000
 9cc:	05a8                	.insn	2, 0x05a8
 9ce:	0000                	.insn	2, 0x0000
 9d0:	05a8                	.insn	2, 0x05a8
 9d2:	0000                	.insn	2, 0x0000
 9d4:	05a8                	.insn	2, 0x05a8
 9d6:	0000                	.insn	2, 0x0000
 9d8:	0510                	.insn	2, 0x0510
 9da:	0000                	.insn	2, 0x0000
 9dc:	05a8                	.insn	2, 0x05a8
 9de:	0000                	.insn	2, 0x0000
 9e0:	05a0                	.insn	2, 0x05a0
 9e2:	0000                	.insn	2, 0x0000
 9e4:	05a8                	.insn	2, 0x05a8
 9e6:	0000                	.insn	2, 0x0000
 9e8:	05a8                	.insn	2, 0x05a8
 9ea:	0000                	.insn	2, 0x0000
 9ec:	05a8                	.insn	2, 0x05a8
 9ee:	0000                	.insn	2, 0x0000
 9f0:	05a8                	.insn	2, 0x05a8
 9f2:	0000                	.insn	2, 0x0000
 9f4:	05a8                	.insn	2, 0x05a8
 9f6:	0000                	.insn	2, 0x0000
 9f8:	0550                	.insn	2, 0x0550
 9fa:	0000                	.insn	2, 0x0000
 9fc:	05a8                	.insn	2, 0x05a8
 9fe:	0000                	.insn	2, 0x0000
 a00:	05a8                	.insn	2, 0x05a8
 a02:	0000                	.insn	2, 0x0000
 a04:	04f0                	.insn	2, 0x04f0
 a06:	0000                	.insn	2, 0x0000
 a08:	0570                	.insn	2, 0x0570
 a0a:	0000                	.insn	2, 0x0000
 a0c:	0484                	.insn	2, 0x0484
 a0e:	0000                	.insn	2, 0x0000
 a10:	3130                	.insn	2, 0x3130
 a12:	3332                	.insn	2, 0x3332
 a14:	3534                	.insn	2, 0x3534
 a16:	3736                	.insn	2, 0x3736
 a18:	3938                	.insn	2, 0x3938
 a1a:	4241                	.insn	2, 0x4241
 a1c:	46454443          	.insn	4, 0x46454443
 a20:	0000                	.insn	2, 0x0000
	...

Дизассемблирование раздела .data:

00001000 <greet>:
    1000:	0d0a                	.insn	2, 0x0d0a
    1002:	0d0a                	.insn	2, 0x0d0a
    1004:	5f5f 6952 6373      	.insn	6, 0x637369525f5f
    100a:	2056                	.insn	2, 0x2056
    100c:	70657453          	.insn	4, 0x70657453
    1010:	5046                	.insn	2, 0x5046
    1012:	5f5f4147          	.insn	4, 0x5f5f4147
    1016:	0d0a                	.insn	2, 0x0d0a
    1018:	614d                	.insn	2, 0x614d
    101a:	3178                	.insn	2, 0x3178
    101c:	2030                	.insn	2, 0x2030
    101e:	3031                	.insn	2, 0x3031
    1020:	304d                	.insn	2, 0x304d
    1022:	5338                	.insn	2, 0x5338
    1024:	4d41                	.insn	2, 0x4d41
    1026:	3531                	.insn	2, 0x3531
    1028:	47384333          	.insn	4, 0x47384333
    102c:	0d0a                	.insn	2, 0x0d0a
	...

00001030 <irq_mask>:
    1030:	ffff                	.insn	2, 0xffff
    1032:	ffff                	.insn	2, 0xffff

Дизассемблирование раздела .comment:

00000000 <.comment>:
   0:	3a434347          	fmsub.d	ft6,ft6,ft4,ft7,rmm
   4:	2820                	.insn	2, 0x2820
   6:	36343067          	.insn	4, 0x36343067
   a:	3639                	.insn	2, 0x3639
   c:	6664                	.insn	2, 0x6664
   e:	3930                	.insn	2, 0x3930
  10:	2936                	.insn	2, 0x2936
  12:	3120                	.insn	2, 0x3120
  14:	2e34                	.insn	2, 0x2e34
  16:	2e32                	.insn	2, 0x2e32
  18:	0030                	.insn	2, 0x0030

Дизассемблирование раздела .riscv.attributes:

00000000 <.riscv.attributes>:
   0:	2e41                	.insn	2, 0x2e41
   2:	0000                	.insn	2, 0x0000
   4:	7200                	.insn	2, 0x7200
   6:	7369                	.insn	2, 0x7369
   8:	01007663          	bgeu	zero,a6,14 <irq_vec+0xc>
   c:	0024                	.insn	2, 0x0024
   e:	0000                	.insn	2, 0x0000
  10:	1004                	.insn	2, 0x1004
  12:	7205                	.insn	2, 0x7205
  14:	3376                	.insn	2, 0x3376
  16:	6932                	.insn	2, 0x6932
  18:	7032                	.insn	2, 0x7032
  1a:	5f31                	.insn	2, 0x5f31
  1c:	3266                	.insn	2, 0x3266
  1e:	3270                	.insn	2, 0x3270
  20:	645f 7032 5f32      	.insn	6, 0x5f327032645f
  26:	697a                	.insn	2, 0x697a
  28:	32727363          	bgeu	tp,t2,34e <menu+0x2>
  2c:	3070                	.insn	2, 0x3070
	...
